
firmware_STM32G030_V12.elf:     file format elf32-littlearm

Sections:
Idx Name          Size      VMA       LMA       File off  Algn
  0 .isr_vector   000000b8  08000000  08000000  00010000  2**0
                  CONTENTS, ALLOC, LOAD, READONLY, DATA
  1 .text         000032a0  080000b8  080000b8  000100b8  2**2
                  CONTENTS, ALLOC, LOAD, READONLY, CODE
  2 .rodata       00002838  08003358  08003358  00013358  2**2
                  CONTENTS, ALLOC, LOAD, READONLY, DATA
  3 .ARM.extab    00000000  08005b90  08005b90  00020090  2**0
                  CONTENTS
  4 .ARM          00000000  08005b90  08005b90  00020090  2**0
                  CONTENTS
  5 .preinit_array 00000000  08005b90  08005b90  00020090  2**0
                  CONTENTS, ALLOC, LOAD, DATA
  6 .init_array   00000004  08005b90  08005b90  00015b90  2**2
                  CONTENTS, ALLOC, LOAD, DATA
  7 .fini_array   00000004  08005b94  08005b94  00015b94  2**2
                  CONTENTS, ALLOC, LOAD, DATA
  8 .data         00000090  20000000  08005b98  00020000  2**2
                  CONTENTS, ALLOC, LOAD, DATA
  9 .bss          00000410  20000090  08005c28  00020090  2**3
                  ALLOC
 10 ._user_heap_stack 00000600  200004a0  08005c28  000204a0  2**0
                  ALLOC
 11 .ARM.attributes 00000028  00000000  00000000  00020090  2**0
                  CONTENTS, READONLY
 12 .comment      0000004d  00000000  00000000  000200b8  2**0
                  CONTENTS, READONLY
 13 .debug_frame  0000043c  00000000  00000000  00020108  2**2
                  CONTENTS, READONLY, DEBUGGING, OCTETS

Disassembly of section .text:

080000b8 <__do_global_dtors_aux>:
 80000b8:	b510      	push	{r4, lr}
 80000ba:	4c06      	ldr	r4, [pc, #24]	; (80000d4 <__do_global_dtors_aux+0x1c>)
 80000bc:	7823      	ldrb	r3, [r4, #0]
 80000be:	2b00      	cmp	r3, #0
 80000c0:	d107      	bne.n	80000d2 <__do_global_dtors_aux+0x1a>
 80000c2:	4b05      	ldr	r3, [pc, #20]	; (80000d8 <__do_global_dtors_aux+0x20>)
 80000c4:	2b00      	cmp	r3, #0
 80000c6:	d002      	beq.n	80000ce <__do_global_dtors_aux+0x16>
 80000c8:	4804      	ldr	r0, [pc, #16]	; (80000dc <__do_global_dtors_aux+0x24>)
 80000ca:	e000      	b.n	80000ce <__do_global_dtors_aux+0x16>
 80000cc:	bf00      	nop
 80000ce:	2301      	movs	r3, #1
 80000d0:	7023      	strb	r3, [r4, #0]
 80000d2:	bd10      	pop	{r4, pc}
 80000d4:	20000090 	.word	0x20000090
 80000d8:	00000000 	.word	0x00000000
 80000dc:	08003340 	.word	0x08003340

080000e0 <frame_dummy>:
 80000e0:	4b04      	ldr	r3, [pc, #16]	; (80000f4 <frame_dummy+0x14>)
 80000e2:	b510      	push	{r4, lr}
 80000e4:	2b00      	cmp	r3, #0
 80000e6:	d003      	beq.n	80000f0 <frame_dummy+0x10>
 80000e8:	4903      	ldr	r1, [pc, #12]	; (80000f8 <frame_dummy+0x18>)
 80000ea:	4804      	ldr	r0, [pc, #16]	; (80000fc <frame_dummy+0x1c>)
 80000ec:	e000      	b.n	80000f0 <frame_dummy+0x10>
 80000ee:	bf00      	nop
 80000f0:	bd10      	pop	{r4, pc}
 80000f2:	46c0      	nop			; (mov r8, r8)
 80000f4:	00000000 	.word	0x00000000
 80000f8:	20000094 	.word	0x20000094
 80000fc:	08003340 	.word	0x08003340

08000100 <strlen>:
 8000100:	2300      	movs	r3, #0
 8000102:	5cc2      	ldrb	r2, [r0, r3]
 8000104:	3301      	adds	r3, #1
 8000106:	2a00      	cmp	r2, #0
 8000108:	d1fb      	bne.n	8000102 <strlen+0x2>
 800010a:	1e58      	subs	r0, r3, #1
 800010c:	4770      	bx	lr
	...

08000110 <__gnu_thumb1_case_shi>:
 8000110:	b403      	push	{r0, r1}
 8000112:	4671      	mov	r1, lr
 8000114:	0849      	lsrs	r1, r1, #1
 8000116:	0040      	lsls	r0, r0, #1
 8000118:	0049      	lsls	r1, r1, #1
 800011a:	5e09      	ldrsh	r1, [r1, r0]
 800011c:	0049      	lsls	r1, r1, #1
 800011e:	448e      	add	lr, r1
 8000120:	bc03      	pop	{r0, r1}
 8000122:	4770      	bx	lr

08000124 <__udivsi3>:
 8000124:	2200      	movs	r2, #0
 8000126:	0843      	lsrs	r3, r0, #1
 8000128:	428b      	cmp	r3, r1
 800012a:	d374      	bcc.n	8000216 <__udivsi3+0xf2>
 800012c:	0903      	lsrs	r3, r0, #4
 800012e:	428b      	cmp	r3, r1
 8000130:	d35f      	bcc.n	80001f2 <__udivsi3+0xce>
 8000132:	0a03      	lsrs	r3, r0, #8
 8000134:	428b      	cmp	r3, r1
 8000136:	d344      	bcc.n	80001c2 <__udivsi3+0x9e>
 8000138:	0b03      	lsrs	r3, r0, #12
 800013a:	428b      	cmp	r3, r1
 800013c:	d328      	bcc.n	8000190 <__udivsi3+0x6c>
 800013e:	0c03      	lsrs	r3, r0, #16
 8000140:	428b      	cmp	r3, r1
 8000142:	d30d      	bcc.n	8000160 <__udivsi3+0x3c>
 8000144:	22ff      	movs	r2, #255	; 0xff
 8000146:	0209      	lsls	r1, r1, #8
 8000148:	ba12      	rev	r2, r2
 800014a:	0c03      	lsrs	r3, r0, #16
 800014c:	428b      	cmp	r3, r1
 800014e:	d302      	bcc.n	8000156 <__udivsi3+0x32>
 8000150:	1212      	asrs	r2, r2, #8
 8000152:	0209      	lsls	r1, r1, #8
 8000154:	d065      	beq.n	8000222 <__udivsi3+0xfe>
 8000156:	0b03      	lsrs	r3, r0, #12
 8000158:	428b      	cmp	r3, r1
 800015a:	d319      	bcc.n	8000190 <__udivsi3+0x6c>
 800015c:	e000      	b.n	8000160 <__udivsi3+0x3c>
 800015e:	0a09      	lsrs	r1, r1, #8
 8000160:	0bc3      	lsrs	r3, r0, #15
 8000162:	428b      	cmp	r3, r1
 8000164:	d301      	bcc.n	800016a <__udivsi3+0x46>
 8000166:	03cb      	lsls	r3, r1, #15
 8000168:	1ac0      	subs	r0, r0, r3
 800016a:	4152      	adcs	r2, r2
 800016c:	0b83      	lsrs	r3, r0, #14
 800016e:	428b      	cmp	r3, r1
 8000170:	d301      	bcc.n	8000176 <__udivsi3+0x52>
 8000172:	038b      	lsls	r3, r1, #14
 8000174:	1ac0      	subs	r0, r0, r3
 8000176:	4152      	adcs	r2, r2
 8000178:	0b43      	lsrs	r3, r0, #13
 800017a:	428b      	cmp	r3, r1
 800017c:	d301      	bcc.n	8000182 <__udivsi3+0x5e>
 800017e:	034b      	lsls	r3, r1, #13
 8000180:	1ac0      	subs	r0, r0, r3
 8000182:	4152      	adcs	r2, r2
 8000184:	0b03      	lsrs	r3, r0, #12
 8000186:	428b      	cmp	r3, r1
 8000188:	d301      	bcc.n	800018e <__udivsi3+0x6a>
 800018a:	030b      	lsls	r3, r1, #12
 800018c:	1ac0      	subs	r0, r0, r3
 800018e:	4152      	adcs	r2, r2
 8000190:	0ac3      	lsrs	r3, r0, #11
 8000192:	428b      	cmp	r3, r1
 8000194:	d301      	bcc.n	800019a <__udivsi3+0x76>
 8000196:	02cb      	lsls	r3, r1, #11
 8000198:	1ac0      	subs	r0, r0, r3
 800019a:	4152      	adcs	r2, r2
 800019c:	0a83      	lsrs	r3, r0, #10
 800019e:	428b      	cmp	r3, r1
 80001a0:	d301      	bcc.n	80001a6 <__udivsi3+0x82>
 80001a2:	028b      	lsls	r3, r1, #10
 80001a4:	1ac0      	subs	r0, r0, r3
 80001a6:	4152      	adcs	r2, r2
 80001a8:	0a43      	lsrs	r3, r0, #9
 80001aa:	428b      	cmp	r3, r1
 80001ac:	d301      	bcc.n	80001b2 <__udivsi3+0x8e>
 80001ae:	024b      	lsls	r3, r1, #9
 80001b0:	1ac0      	subs	r0, r0, r3
 80001b2:	4152      	adcs	r2, r2
 80001b4:	0a03      	lsrs	r3, r0, #8
 80001b6:	428b      	cmp	r3, r1
 80001b8:	d301      	bcc.n	80001be <__udivsi3+0x9a>
 80001ba:	020b      	lsls	r3, r1, #8
 80001bc:	1ac0      	subs	r0, r0, r3
 80001be:	4152      	adcs	r2, r2
 80001c0:	d2cd      	bcs.n	800015e <__udivsi3+0x3a>
 80001c2:	09c3      	lsrs	r3, r0, #7
 80001c4:	428b      	cmp	r3, r1
 80001c6:	d301      	bcc.n	80001cc <__udivsi3+0xa8>
 80001c8:	01cb      	lsls	r3, r1, #7
 80001ca:	1ac0      	subs	r0, r0, r3
 80001cc:	4152      	adcs	r2, r2
 80001ce:	0983      	lsrs	r3, r0, #6
 80001d0:	428b      	cmp	r3, r1
 80001d2:	d301      	bcc.n	80001d8 <__udivsi3+0xb4>
 80001d4:	018b      	lsls	r3, r1, #6
 80001d6:	1ac0      	subs	r0, r0, r3
 80001d8:	4152      	adcs	r2, r2
 80001da:	0943      	lsrs	r3, r0, #5
 80001dc:	428b      	cmp	r3, r1
 80001de:	d301      	bcc.n	80001e4 <__udivsi3+0xc0>
 80001e0:	014b      	lsls	r3, r1, #5
 80001e2:	1ac0      	subs	r0, r0, r3
 80001e4:	4152      	adcs	r2, r2
 80001e6:	0903      	lsrs	r3, r0, #4
 80001e8:	428b      	cmp	r3, r1
 80001ea:	d301      	bcc.n	80001f0 <__udivsi3+0xcc>
 80001ec:	010b      	lsls	r3, r1, #4
 80001ee:	1ac0      	subs	r0, r0, r3
 80001f0:	4152      	adcs	r2, r2
 80001f2:	08c3      	lsrs	r3, r0, #3
 80001f4:	428b      	cmp	r3, r1
 80001f6:	d301      	bcc.n	80001fc <__udivsi3+0xd8>
 80001f8:	00cb      	lsls	r3, r1, #3
 80001fa:	1ac0      	subs	r0, r0, r3
 80001fc:	4152      	adcs	r2, r2
 80001fe:	0883      	lsrs	r3, r0, #2
 8000200:	428b      	cmp	r3, r1
 8000202:	d301      	bcc.n	8000208 <__udivsi3+0xe4>
 8000204:	008b      	lsls	r3, r1, #2
 8000206:	1ac0      	subs	r0, r0, r3
 8000208:	4152      	adcs	r2, r2
 800020a:	0843      	lsrs	r3, r0, #1
 800020c:	428b      	cmp	r3, r1
 800020e:	d301      	bcc.n	8000214 <__udivsi3+0xf0>
 8000210:	004b      	lsls	r3, r1, #1
 8000212:	1ac0      	subs	r0, r0, r3
 8000214:	4152      	adcs	r2, r2
 8000216:	1a41      	subs	r1, r0, r1
 8000218:	d200      	bcs.n	800021c <__udivsi3+0xf8>
 800021a:	4601      	mov	r1, r0
 800021c:	4152      	adcs	r2, r2
 800021e:	4610      	mov	r0, r2
 8000220:	4770      	bx	lr
 8000222:	e7ff      	b.n	8000224 <__udivsi3+0x100>
 8000224:	b501      	push	{r0, lr}
 8000226:	2000      	movs	r0, #0
 8000228:	f000 f8f0 	bl	800040c <__aeabi_idiv0>
 800022c:	bd02      	pop	{r1, pc}
 800022e:	46c0      	nop			; (mov r8, r8)

08000230 <__aeabi_uidivmod>:
 8000230:	2900      	cmp	r1, #0
 8000232:	d0f7      	beq.n	8000224 <__udivsi3+0x100>
 8000234:	e776      	b.n	8000124 <__udivsi3>
 8000236:	4770      	bx	lr

08000238 <__divsi3>:
 8000238:	4603      	mov	r3, r0
 800023a:	430b      	orrs	r3, r1
 800023c:	d47f      	bmi.n	800033e <__divsi3+0x106>
 800023e:	2200      	movs	r2, #0
 8000240:	0843      	lsrs	r3, r0, #1
 8000242:	428b      	cmp	r3, r1
 8000244:	d374      	bcc.n	8000330 <__divsi3+0xf8>
 8000246:	0903      	lsrs	r3, r0, #4
 8000248:	428b      	cmp	r3, r1
 800024a:	d35f      	bcc.n	800030c <__divsi3+0xd4>
 800024c:	0a03      	lsrs	r3, r0, #8
 800024e:	428b      	cmp	r3, r1
 8000250:	d344      	bcc.n	80002dc <__divsi3+0xa4>
 8000252:	0b03      	lsrs	r3, r0, #12
 8000254:	428b      	cmp	r3, r1
 8000256:	d328      	bcc.n	80002aa <__divsi3+0x72>
 8000258:	0c03      	lsrs	r3, r0, #16
 800025a:	428b      	cmp	r3, r1
 800025c:	d30d      	bcc.n	800027a <__divsi3+0x42>
 800025e:	22ff      	movs	r2, #255	; 0xff
 8000260:	0209      	lsls	r1, r1, #8
 8000262:	ba12      	rev	r2, r2
 8000264:	0c03      	lsrs	r3, r0, #16
 8000266:	428b      	cmp	r3, r1
 8000268:	d302      	bcc.n	8000270 <__divsi3+0x38>
 800026a:	1212      	asrs	r2, r2, #8
 800026c:	0209      	lsls	r1, r1, #8
 800026e:	d065      	beq.n	800033c <__divsi3+0x104>
 8000270:	0b03      	lsrs	r3, r0, #12
 8000272:	428b      	cmp	r3, r1
 8000274:	d319      	bcc.n	80002aa <__divsi3+0x72>
 8000276:	e000      	b.n	800027a <__divsi3+0x42>
 8000278:	0a09      	lsrs	r1, r1, #8
 800027a:	0bc3      	lsrs	r3, r0, #15
 800027c:	428b      	cmp	r3, r1
 800027e:	d301      	bcc.n	8000284 <__divsi3+0x4c>
 8000280:	03cb      	lsls	r3, r1, #15
 8000282:	1ac0      	subs	r0, r0, r3
 8000284:	4152      	adcs	r2, r2
 8000286:	0b83      	lsrs	r3, r0, #14
 8000288:	428b      	cmp	r3, r1
 800028a:	d301      	bcc.n	8000290 <__divsi3+0x58>
 800028c:	038b      	lsls	r3, r1, #14
 800028e:	1ac0      	subs	r0, r0, r3
 8000290:	4152      	adcs	r2, r2
 8000292:	0b43      	lsrs	r3, r0, #13
 8000294:	428b      	cmp	r3, r1
 8000296:	d301      	bcc.n	800029c <__divsi3+0x64>
 8000298:	034b      	lsls	r3, r1, #13
 800029a:	1ac0      	subs	r0, r0, r3
 800029c:	4152      	adcs	r2, r2
 800029e:	0b03      	lsrs	r3, r0, #12
 80002a0:	428b      	cmp	r3, r1
 80002a2:	d301      	bcc.n	80002a8 <__divsi3+0x70>
 80002a4:	030b      	lsls	r3, r1, #12
 80002a6:	1ac0      	subs	r0, r0, r3
 80002a8:	4152      	adcs	r2, r2
 80002aa:	0ac3      	lsrs	r3, r0, #11
 80002ac:	428b      	cmp	r3, r1
 80002ae:	d301      	bcc.n	80002b4 <__divsi3+0x7c>
 80002b0:	02cb      	lsls	r3, r1, #11
 80002b2:	1ac0      	subs	r0, r0, r3
 80002b4:	4152      	adcs	r2, r2
 80002b6:	0a83      	lsrs	r3, r0, #10
 80002b8:	428b      	cmp	r3, r1
 80002ba:	d301      	bcc.n	80002c0 <__divsi3+0x88>
 80002bc:	028b      	lsls	r3, r1, #10
 80002be:	1ac0      	subs	r0, r0, r3
 80002c0:	4152      	adcs	r2, r2
 80002c2:	0a43      	lsrs	r3, r0, #9
 80002c4:	428b      	cmp	r3, r1
 80002c6:	d301      	bcc.n	80002cc <__divsi3+0x94>
 80002c8:	024b      	lsls	r3, r1, #9
 80002ca:	1ac0      	subs	r0, r0, r3
 80002cc:	4152      	adcs	r2, r2
 80002ce:	0a03      	lsrs	r3, r0, #8
 80002d0:	428b      	cmp	r3, r1
 80002d2:	d301      	bcc.n	80002d8 <__divsi3+0xa0>
 80002d4:	020b      	lsls	r3, r1, #8
 80002d6:	1ac0      	subs	r0, r0, r3
 80002d8:	4152      	adcs	r2, r2
 80002da:	d2cd      	bcs.n	8000278 <__divsi3+0x40>
 80002dc:	09c3      	lsrs	r3, r0, #7
 80002de:	428b      	cmp	r3, r1
 80002e0:	d301      	bcc.n	80002e6 <__divsi3+0xae>
 80002e2:	01cb      	lsls	r3, r1, #7
 80002e4:	1ac0      	subs	r0, r0, r3
 80002e6:	4152      	adcs	r2, r2
 80002e8:	0983      	lsrs	r3, r0, #6
 80002ea:	428b      	cmp	r3, r1
 80002ec:	d301      	bcc.n	80002f2 <__divsi3+0xba>
 80002ee:	018b      	lsls	r3, r1, #6
 80002f0:	1ac0      	subs	r0, r0, r3
 80002f2:	4152      	adcs	r2, r2
 80002f4:	0943      	lsrs	r3, r0, #5
 80002f6:	428b      	cmp	r3, r1
 80002f8:	d301      	bcc.n	80002fe <__divsi3+0xc6>
 80002fa:	014b      	lsls	r3, r1, #5
 80002fc:	1ac0      	subs	r0, r0, r3
 80002fe:	4152      	adcs	r2, r2
 8000300:	0903      	lsrs	r3, r0, #4
 8000302:	428b      	cmp	r3, r1
 8000304:	d301      	bcc.n	800030a <__divsi3+0xd2>
 8000306:	010b      	lsls	r3, r1, #4
 8000308:	1ac0      	subs	r0, r0, r3
 800030a:	4152      	adcs	r2, r2
 800030c:	08c3      	lsrs	r3, r0, #3
 800030e:	428b      	cmp	r3, r1
 8000310:	d301      	bcc.n	8000316 <__divsi3+0xde>
 8000312:	00cb      	lsls	r3, r1, #3
 8000314:	1ac0      	subs	r0, r0, r3
 8000316:	4152      	adcs	r2, r2
 8000318:	0883      	lsrs	r3, r0, #2
 800031a:	428b      	cmp	r3, r1
 800031c:	d301      	bcc.n	8000322 <__divsi3+0xea>
 800031e:	008b      	lsls	r3, r1, #2
 8000320:	1ac0      	subs	r0, r0, r3
 8000322:	4152      	adcs	r2, r2
 8000324:	0843      	lsrs	r3, r0, #1
 8000326:	428b      	cmp	r3, r1
 8000328:	d301      	bcc.n	800032e <__divsi3+0xf6>
 800032a:	004b      	lsls	r3, r1, #1
 800032c:	1ac0      	subs	r0, r0, r3
 800032e:	4152      	adcs	r2, r2
 8000330:	1a41      	subs	r1, r0, r1
 8000332:	d200      	bcs.n	8000336 <__divsi3+0xfe>
 8000334:	4601      	mov	r1, r0
 8000336:	4152      	adcs	r2, r2
 8000338:	4610      	mov	r0, r2
 800033a:	4770      	bx	lr
 800033c:	e05d      	b.n	80003fa <__divsi3+0x1c2>
 800033e:	0fca      	lsrs	r2, r1, #31
 8000340:	d000      	beq.n	8000344 <__divsi3+0x10c>
 8000342:	4249      	negs	r1, r1
 8000344:	1003      	asrs	r3, r0, #32
 8000346:	d300      	bcc.n	800034a <__divsi3+0x112>
 8000348:	4240      	negs	r0, r0
 800034a:	4053      	eors	r3, r2
 800034c:	2200      	movs	r2, #0
 800034e:	469c      	mov	ip, r3
 8000350:	0903      	lsrs	r3, r0, #4
 8000352:	428b      	cmp	r3, r1
 8000354:	d32d      	bcc.n	80003b2 <__divsi3+0x17a>
 8000356:	0a03      	lsrs	r3, r0, #8
 8000358:	428b      	cmp	r3, r1
 800035a:	d312      	bcc.n	8000382 <__divsi3+0x14a>
 800035c:	22fc      	movs	r2, #252	; 0xfc
 800035e:	0189      	lsls	r1, r1, #6
 8000360:	ba12      	rev	r2, r2
 8000362:	0a03      	lsrs	r3, r0, #8
 8000364:	428b      	cmp	r3, r1
 8000366:	d30c      	bcc.n	8000382 <__divsi3+0x14a>
 8000368:	0189      	lsls	r1, r1, #6
 800036a:	1192      	asrs	r2, r2, #6
 800036c:	428b      	cmp	r3, r1
 800036e:	d308      	bcc.n	8000382 <__divsi3+0x14a>
 8000370:	0189      	lsls	r1, r1, #6
 8000372:	1192      	asrs	r2, r2, #6
 8000374:	428b      	cmp	r3, r1
 8000376:	d304      	bcc.n	8000382 <__divsi3+0x14a>
 8000378:	0189      	lsls	r1, r1, #6
 800037a:	d03a      	beq.n	80003f2 <__divsi3+0x1ba>
 800037c:	1192      	asrs	r2, r2, #6
 800037e:	e000      	b.n	8000382 <__divsi3+0x14a>
 8000380:	0989      	lsrs	r1, r1, #6
 8000382:	09c3      	lsrs	r3, r0, #7
 8000384:	428b      	cmp	r3, r1
 8000386:	d301      	bcc.n	800038c <__divsi3+0x154>
 8000388:	01cb      	lsls	r3, r1, #7
 800038a:	1ac0      	subs	r0, r0, r3
 800038c:	4152      	adcs	r2, r2
 800038e:	0983      	lsrs	r3, r0, #6
 8000390:	428b      	cmp	r3, r1
 8000392:	d301      	bcc.n	8000398 <__divsi3+0x160>
 8000394:	018b      	lsls	r3, r1, #6
 8000396:	1ac0      	subs	r0, r0, r3
 8000398:	4152      	adcs	r2, r2
 800039a:	0943      	lsrs	r3, r0, #5
 800039c:	428b      	cmp	r3, r1
 800039e:	d301      	bcc.n	80003a4 <__divsi3+0x16c>
 80003a0:	014b      	lsls	r3, r1, #5
 80003a2:	1ac0      	subs	r0, r0, r3
 80003a4:	4152      	adcs	r2, r2
 80003a6:	0903      	lsrs	r3, r0, #4
 80003a8:	428b      	cmp	r3, r1
 80003aa:	d301      	bcc.n	80003b0 <__divsi3+0x178>
 80003ac:	010b      	lsls	r3, r1, #4
 80003ae:	1ac0      	subs	r0, r0, r3
 80003b0:	4152      	adcs	r2, r2
 80003b2:	08c3      	lsrs	r3, r0, #3
 80003b4:	428b      	cmp	r3, r1
 80003b6:	d301      	bcc.n	80003bc <__divsi3+0x184>
 80003b8:	00cb      	lsls	r3, r1, #3
 80003ba:	1ac0      	subs	r0, r0, r3
 80003bc:	4152      	adcs	r2, r2
 80003be:	0883      	lsrs	r3, r0, #2
 80003c0:	428b      	cmp	r3, r1
 80003c2:	d301      	bcc.n	80003c8 <__divsi3+0x190>
 80003c4:	008b      	lsls	r3, r1, #2
 80003c6:	1ac0      	subs	r0, r0, r3
 80003c8:	4152      	adcs	r2, r2
 80003ca:	d2d9      	bcs.n	8000380 <__divsi3+0x148>
 80003cc:	0843      	lsrs	r3, r0, #1
 80003ce:	428b      	cmp	r3, r1
 80003d0:	d301      	bcc.n	80003d6 <__divsi3+0x19e>
 80003d2:	004b      	lsls	r3, r1, #1
 80003d4:	1ac0      	subs	r0, r0, r3
 80003d6:	4152      	adcs	r2, r2
 80003d8:	1a41      	subs	r1, r0, r1
 80003da:	d200      	bcs.n	80003de <__divsi3+0x1a6>
 80003dc:	4601      	mov	r1, r0
 80003de:	4663      	mov	r3, ip
 80003e0:	4152      	adcs	r2, r2
 80003e2:	105b      	asrs	r3, r3, #1
 80003e4:	4610      	mov	r0, r2
 80003e6:	d301      	bcc.n	80003ec <__divsi3+0x1b4>
 80003e8:	4240      	negs	r0, r0
 80003ea:	2b00      	cmp	r3, #0
 80003ec:	d500      	bpl.n	80003f0 <__divsi3+0x1b8>
 80003ee:	4249      	negs	r1, r1
 80003f0:	4770      	bx	lr
 80003f2:	4663      	mov	r3, ip
 80003f4:	105b      	asrs	r3, r3, #1
 80003f6:	d300      	bcc.n	80003fa <__divsi3+0x1c2>
 80003f8:	4240      	negs	r0, r0
 80003fa:	b501      	push	{r0, lr}
 80003fc:	2000      	movs	r0, #0
 80003fe:	f000 f805 	bl	800040c <__aeabi_idiv0>
 8000402:	bd02      	pop	{r1, pc}

08000404 <__aeabi_idivmod>:
 8000404:	2900      	cmp	r1, #0
 8000406:	d0f8      	beq.n	80003fa <__divsi3+0x1c2>
 8000408:	e716      	b.n	8000238 <__divsi3>
 800040a:	4770      	bx	lr

0800040c <__aeabi_idiv0>:
 800040c:	4770      	bx	lr
 800040e:	46c0      	nop			; (mov r8, r8)

08000410 <adc_init>:
 8000410:	2201      	movs	r2, #1
 8000412:	4b39      	ldr	r3, [pc, #228]	; (80004f8 <adc_init+0xe8>)
 8000414:	b510      	push	{r4, lr}
 8000416:	6b99      	ldr	r1, [r3, #56]	; 0x38
 8000418:	b082      	sub	sp, #8
 800041a:	4311      	orrs	r1, r2
 800041c:	6399      	str	r1, [r3, #56]	; 0x38
 800041e:	2180      	movs	r1, #128	; 0x80
 8000420:	6c18      	ldr	r0, [r3, #64]	; 0x40
 8000422:	0349      	lsls	r1, r1, #13
 8000424:	4301      	orrs	r1, r0
 8000426:	6419      	str	r1, [r3, #64]	; 0x40
 8000428:	2180      	movs	r1, #128	; 0x80
 800042a:	6d58      	ldr	r0, [r3, #84]	; 0x54
 800042c:	05c9      	lsls	r1, r1, #23
 800042e:	4301      	orrs	r1, r0
 8000430:	6559      	str	r1, [r3, #84]	; 0x54
 8000432:	2380      	movs	r3, #128	; 0x80
 8000434:	4931      	ldr	r1, [pc, #196]	; (80004fc <adc_init+0xec>)
 8000436:	02db      	lsls	r3, r3, #11
 8000438:	6808      	ldr	r0, [r1, #0]
 800043a:	4303      	orrs	r3, r0
 800043c:	600b      	str	r3, [r1, #0]
 800043e:	4b30      	ldr	r3, [pc, #192]	; (8000500 <adc_init+0xf0>)
 8000440:	4930      	ldr	r1, [pc, #192]	; (8000504 <adc_init+0xf4>)
 8000442:	68d8      	ldr	r0, [r3, #12]
 8000444:	4301      	orrs	r1, r0
 8000446:	60d9      	str	r1, [r3, #12]
 8000448:	6919      	ldr	r1, [r3, #16]
 800044a:	6119      	str	r1, [r3, #16]
 800044c:	6959      	ldr	r1, [r3, #20]
 800044e:	6159      	str	r1, [r3, #20]
 8000450:	21c0      	movs	r1, #192	; 0xc0
 8000452:	68d8      	ldr	r0, [r3, #12]
 8000454:	0409      	lsls	r1, r1, #16
 8000456:	4301      	orrs	r1, r0
 8000458:	60d9      	str	r1, [r3, #12]
 800045a:	21fa      	movs	r1, #250	; 0xfa
 800045c:	482a      	ldr	r0, [pc, #168]	; (8000508 <adc_init+0xf8>)
 800045e:	04c9      	lsls	r1, r1, #19
 8000460:	6219      	str	r1, [r3, #32]
 8000462:	6258      	str	r0, [r3, #36]	; 0x24
 8000464:	20a0      	movs	r0, #160	; 0xa0
 8000466:	501a      	str	r2, [r3, r0]
 8000468:	62d9      	str	r1, [r3, #44]	; 0x2c
 800046a:	21a4      	movs	r1, #164	; 0xa4
 800046c:	505a      	str	r2, [r3, r1]
 800046e:	4a27      	ldr	r2, [pc, #156]	; (800050c <adc_init+0xfc>)
 8000470:	629a      	str	r2, [r3, #40]	; 0x28
 8000472:	2280      	movs	r2, #128	; 0x80
 8000474:	6899      	ldr	r1, [r3, #8]
 8000476:	0552      	lsls	r2, r2, #21
 8000478:	430a      	orrs	r2, r1
 800047a:	609a      	str	r2, [r3, #8]
 800047c:	2300      	movs	r3, #0
 800047e:	9301      	str	r3, [sp, #4]
 8000480:	9b01      	ldr	r3, [sp, #4]
 8000482:	4a23      	ldr	r2, [pc, #140]	; (8000510 <adc_init+0x100>)
 8000484:	4293      	cmp	r3, r2
 8000486:	d805      	bhi.n	8000494 <adc_init+0x84>
 8000488:	9b01      	ldr	r3, [sp, #4]
 800048a:	3301      	adds	r3, #1
 800048c:	9301      	str	r3, [sp, #4]
 800048e:	9b01      	ldr	r3, [sp, #4]
 8000490:	4293      	cmp	r3, r2
 8000492:	d9f9      	bls.n	8000488 <adc_init+0x78>
 8000494:	2380      	movs	r3, #128	; 0x80
 8000496:	4a1a      	ldr	r2, [pc, #104]	; (8000500 <adc_init+0xf0>)
 8000498:	061b      	lsls	r3, r3, #24
 800049a:	6891      	ldr	r1, [r2, #8]
 800049c:	430b      	orrs	r3, r1
 800049e:	6093      	str	r3, [r2, #8]
 80004a0:	6893      	ldr	r3, [r2, #8]
 80004a2:	2b00      	cmp	r3, #0
 80004a4:	dbfc      	blt.n	80004a0 <adc_init+0x90>
 80004a6:	6813      	ldr	r3, [r2, #0]
 80004a8:	491a      	ldr	r1, [pc, #104]	; (8000514 <adc_init+0x104>)
 80004aa:	400b      	ands	r3, r1
 80004ac:	2101      	movs	r1, #1
 80004ae:	6013      	str	r3, [r2, #0]
 80004b0:	6893      	ldr	r3, [r2, #8]
 80004b2:	430b      	orrs	r3, r1
 80004b4:	6093      	str	r3, [r2, #8]
 80004b6:	4912      	ldr	r1, [pc, #72]	; (8000500 <adc_init+0xf0>)
 80004b8:	4a17      	ldr	r2, [pc, #92]	; (8000518 <adc_init+0x108>)
 80004ba:	680b      	ldr	r3, [r1, #0]
 80004bc:	4013      	ands	r3, r2
 80004be:	4293      	cmp	r3, r2
 80004c0:	d1fb      	bne.n	80004ba <adc_init+0xaa>
 80004c2:	2001      	movs	r0, #1
 80004c4:	68cb      	ldr	r3, [r1, #12]
 80004c6:	4a15      	ldr	r2, [pc, #84]	; (800051c <adc_init+0x10c>)
 80004c8:	4303      	orrs	r3, r0
 80004ca:	60cb      	str	r3, [r1, #12]
 80004cc:	4b14      	ldr	r3, [pc, #80]	; (8000520 <adc_init+0x110>)
 80004ce:	2405      	movs	r4, #5
 80004d0:	60da      	str	r2, [r3, #12]
 80004d2:	4a14      	ldr	r2, [pc, #80]	; (8000524 <adc_init+0x114>)
 80004d4:	609a      	str	r2, [r3, #8]
 80004d6:	2220      	movs	r2, #32
 80004d8:	605a      	str	r2, [r3, #4]
 80004da:	22b4      	movs	r2, #180	; 0xb4
 80004dc:	00d2      	lsls	r2, r2, #3
 80004de:	601a      	str	r2, [r3, #0]
 80004e0:	4a11      	ldr	r2, [pc, #68]	; (8000528 <adc_init+0x118>)
 80004e2:	6014      	str	r4, [r2, #0]
 80004e4:	681a      	ldr	r2, [r3, #0]
 80004e6:	4302      	orrs	r2, r0
 80004e8:	601a      	str	r2, [r3, #0]
 80004ea:	2204      	movs	r2, #4
 80004ec:	688b      	ldr	r3, [r1, #8]
 80004ee:	4313      	orrs	r3, r2
 80004f0:	608b      	str	r3, [r1, #8]
 80004f2:	b002      	add	sp, #8
 80004f4:	bd10      	pop	{r4, pc}
 80004f6:	46c0      	nop			; (mov r8, r8)
 80004f8:	40021000 	.word	0x40021000
 80004fc:	40012708 	.word	0x40012708
 8000500:	40012400 	.word	0x40012400
 8000504:	00203002 	.word	0x00203002
 8000508:	06a403e8 	.word	0x06a403e8
 800050c:	70604050 	.word	0x70604050
 8000510:	0001869f 	.word	0x0001869f
 8000514:	ffffdffe 	.word	0xffffdffe
 8000518:	00002001 	.word	0x00002001
 800051c:	200000ac 	.word	0x200000ac
 8000520:	40020008 	.word	0x40020008
 8000524:	40012440 	.word	0x40012440
 8000528:	40020800 	.word	0x40020800

0800052c <get_motor_current>:
 800052c:	4b4f      	ldr	r3, [pc, #316]	; (800066c <get_motor_current+0x140>)
 800052e:	b510      	push	{r4, lr}
 8000530:	2200      	movs	r2, #0
 8000532:	5e99      	ldrsh	r1, [r3, r2]
 8000534:	4a4e      	ldr	r2, [pc, #312]	; (8000670 <get_motor_current+0x144>)
 8000536:	0008      	movs	r0, r1
 8000538:	4291      	cmp	r1, r2
 800053a:	d000      	beq.n	800053e <get_motor_current+0x12>
 800053c:	484d      	ldr	r0, [pc, #308]	; (8000674 <get_motor_current+0x148>)
 800053e:	2404      	movs	r4, #4
 8000540:	5f1a      	ldrsh	r2, [r3, r4]
 8000542:	4291      	cmp	r1, r2
 8000544:	dc05      	bgt.n	8000552 <get_motor_current+0x26>
 8000546:	1c04      	adds	r4, r0, #0
 8000548:	4290      	cmp	r0, r2
 800054a:	da00      	bge.n	800054e <get_motor_current+0x22>
 800054c:	1c14      	adds	r4, r2, #0
 800054e:	000a      	movs	r2, r1
 8000550:	b220      	sxth	r0, r4
 8000552:	2408      	movs	r4, #8
 8000554:	5f19      	ldrsh	r1, [r3, r4]
 8000556:	428a      	cmp	r2, r1
 8000558:	dc05      	bgt.n	8000566 <get_motor_current+0x3a>
 800055a:	1c04      	adds	r4, r0, #0
 800055c:	4288      	cmp	r0, r1
 800055e:	da00      	bge.n	8000562 <get_motor_current+0x36>
 8000560:	1c0c      	adds	r4, r1, #0
 8000562:	0011      	movs	r1, r2
 8000564:	b220      	sxth	r0, r4
 8000566:	240c      	movs	r4, #12
 8000568:	5f1a      	ldrsh	r2, [r3, r4]
 800056a:	4291      	cmp	r1, r2
 800056c:	dc05      	bgt.n	800057a <get_motor_current+0x4e>
 800056e:	1c04      	adds	r4, r0, #0
 8000570:	4290      	cmp	r0, r2
 8000572:	da00      	bge.n	8000576 <get_motor_current+0x4a>
 8000574:	1c14      	adds	r4, r2, #0
 8000576:	000a      	movs	r2, r1
 8000578:	b220      	sxth	r0, r4
 800057a:	2410      	movs	r4, #16
 800057c:	5f19      	ldrsh	r1, [r3, r4]
 800057e:	428a      	cmp	r2, r1
 8000580:	dc05      	bgt.n	800058e <get_motor_current+0x62>
 8000582:	1c04      	adds	r4, r0, #0
 8000584:	4288      	cmp	r0, r1
 8000586:	da00      	bge.n	800058a <get_motor_current+0x5e>
 8000588:	1c0c      	adds	r4, r1, #0
 800058a:	0011      	movs	r1, r2
 800058c:	b220      	sxth	r0, r4
 800058e:	2414      	movs	r4, #20
 8000590:	5f1a      	ldrsh	r2, [r3, r4]
 8000592:	4291      	cmp	r1, r2
 8000594:	dc05      	bgt.n	80005a2 <get_motor_current+0x76>
 8000596:	1c04      	adds	r4, r0, #0
 8000598:	4290      	cmp	r0, r2
 800059a:	da00      	bge.n	800059e <get_motor_current+0x72>
 800059c:	1c14      	adds	r4, r2, #0
 800059e:	000a      	movs	r2, r1
 80005a0:	b220      	sxth	r0, r4
 80005a2:	2418      	movs	r4, #24
 80005a4:	5f19      	ldrsh	r1, [r3, r4]
 80005a6:	428a      	cmp	r2, r1
 80005a8:	dc05      	bgt.n	80005b6 <get_motor_current+0x8a>
 80005aa:	1c04      	adds	r4, r0, #0
 80005ac:	4288      	cmp	r0, r1
 80005ae:	da00      	bge.n	80005b2 <get_motor_current+0x86>
 80005b0:	1c0c      	adds	r4, r1, #0
 80005b2:	0011      	movs	r1, r2
 80005b4:	b220      	sxth	r0, r4
 80005b6:	241c      	movs	r4, #28
 80005b8:	5f1a      	ldrsh	r2, [r3, r4]
 80005ba:	4291      	cmp	r1, r2
 80005bc:	dc05      	bgt.n	80005ca <get_motor_current+0x9e>
 80005be:	1c04      	adds	r4, r0, #0
 80005c0:	4290      	cmp	r0, r2
 80005c2:	da00      	bge.n	80005c6 <get_motor_current+0x9a>
 80005c4:	1c14      	adds	r4, r2, #0
 80005c6:	000a      	movs	r2, r1
 80005c8:	b220      	sxth	r0, r4
 80005ca:	2420      	movs	r4, #32
 80005cc:	5f19      	ldrsh	r1, [r3, r4]
 80005ce:	428a      	cmp	r2, r1
 80005d0:	dc05      	bgt.n	80005de <get_motor_current+0xb2>
 80005d2:	1c04      	adds	r4, r0, #0
 80005d4:	4288      	cmp	r0, r1
 80005d6:	da00      	bge.n	80005da <get_motor_current+0xae>
 80005d8:	1c0c      	adds	r4, r1, #0
 80005da:	0011      	movs	r1, r2
 80005dc:	b220      	sxth	r0, r4
 80005de:	2424      	movs	r4, #36	; 0x24
 80005e0:	5f1a      	ldrsh	r2, [r3, r4]
 80005e2:	4291      	cmp	r1, r2
 80005e4:	dc05      	bgt.n	80005f2 <get_motor_current+0xc6>
 80005e6:	1c04      	adds	r4, r0, #0
 80005e8:	4290      	cmp	r0, r2
 80005ea:	da00      	bge.n	80005ee <get_motor_current+0xc2>
 80005ec:	1c14      	adds	r4, r2, #0
 80005ee:	000a      	movs	r2, r1
 80005f0:	b220      	sxth	r0, r4
 80005f2:	2428      	movs	r4, #40	; 0x28
 80005f4:	5f19      	ldrsh	r1, [r3, r4]
 80005f6:	428a      	cmp	r2, r1
 80005f8:	dc05      	bgt.n	8000606 <get_motor_current+0xda>
 80005fa:	1c04      	adds	r4, r0, #0
 80005fc:	4288      	cmp	r0, r1
 80005fe:	da00      	bge.n	8000602 <get_motor_current+0xd6>
 8000600:	1c0c      	adds	r4, r1, #0
 8000602:	0011      	movs	r1, r2
 8000604:	b220      	sxth	r0, r4
 8000606:	242c      	movs	r4, #44	; 0x2c
 8000608:	5f1a      	ldrsh	r2, [r3, r4]
 800060a:	4291      	cmp	r1, r2
 800060c:	dc05      	bgt.n	800061a <get_motor_current+0xee>
 800060e:	1c04      	adds	r4, r0, #0
 8000610:	4290      	cmp	r0, r2
 8000612:	da00      	bge.n	8000616 <get_motor_current+0xea>
 8000614:	1c14      	adds	r4, r2, #0
 8000616:	000a      	movs	r2, r1
 8000618:	b220      	sxth	r0, r4
 800061a:	2430      	movs	r4, #48	; 0x30
 800061c:	5f19      	ldrsh	r1, [r3, r4]
 800061e:	428a      	cmp	r2, r1
 8000620:	dc05      	bgt.n	800062e <get_motor_current+0x102>
 8000622:	1c04      	adds	r4, r0, #0
 8000624:	4288      	cmp	r0, r1
 8000626:	da00      	bge.n	800062a <get_motor_current+0xfe>
 8000628:	1c0c      	adds	r4, r1, #0
 800062a:	0011      	movs	r1, r2
 800062c:	b220      	sxth	r0, r4
 800062e:	2434      	movs	r4, #52	; 0x34
 8000630:	5f1a      	ldrsh	r2, [r3, r4]
 8000632:	4291      	cmp	r1, r2
 8000634:	dc05      	bgt.n	8000642 <get_motor_current+0x116>
 8000636:	1c04      	adds	r4, r0, #0
 8000638:	4290      	cmp	r0, r2
 800063a:	da00      	bge.n	800063e <get_motor_current+0x112>
 800063c:	1c14      	adds	r4, r2, #0
 800063e:	000a      	movs	r2, r1
 8000640:	b220      	sxth	r0, r4
 8000642:	2438      	movs	r4, #56	; 0x38
 8000644:	5f19      	ldrsh	r1, [r3, r4]
 8000646:	428a      	cmp	r2, r1
 8000648:	dc05      	bgt.n	8000656 <get_motor_current+0x12a>
 800064a:	1c04      	adds	r4, r0, #0
 800064c:	4288      	cmp	r0, r1
 800064e:	da00      	bge.n	8000652 <get_motor_current+0x126>
 8000650:	1c0c      	adds	r4, r1, #0
 8000652:	0011      	movs	r1, r2
 8000654:	b220      	sxth	r0, r4
 8000656:	223c      	movs	r2, #60	; 0x3c
 8000658:	5e9b      	ldrsh	r3, [r3, r2]
 800065a:	428b      	cmp	r3, r1
 800065c:	db04      	blt.n	8000668 <get_motor_current+0x13c>
 800065e:	1c1a      	adds	r2, r3, #0
 8000660:	4283      	cmp	r3, r0
 8000662:	da00      	bge.n	8000666 <get_motor_current+0x13a>
 8000664:	1c02      	adds	r2, r0, #0
 8000666:	b210      	sxth	r0, r2
 8000668:	b280      	uxth	r0, r0
 800066a:	bd10      	pop	{r4, pc}
 800066c:	200000ac 	.word	0x200000ac
 8000670:	00007fff 	.word	0x00007fff
 8000674:	ffff8000 	.word	0xffff8000

08000678 <pwm_init>:
 8000678:	2380      	movs	r3, #128	; 0x80
 800067a:	4a20      	ldr	r2, [pc, #128]	; (80006fc <pwm_init+0x84>)
 800067c:	011b      	lsls	r3, r3, #4
 800067e:	6c11      	ldr	r1, [r2, #64]	; 0x40
 8000680:	430b      	orrs	r3, r1
 8000682:	6413      	str	r3, [r2, #64]	; 0x40
 8000684:	23a0      	movs	r3, #160	; 0xa0
 8000686:	4a1e      	ldr	r2, [pc, #120]	; (8000700 <pwm_init+0x88>)
 8000688:	05db      	lsls	r3, r3, #23
 800068a:	625a      	str	r2, [r3, #36]	; 0x24
 800068c:	2280      	movs	r2, #128	; 0x80
 800068e:	4b1d      	ldr	r3, [pc, #116]	; (8000704 <pwm_init+0x8c>)
 8000690:	0152      	lsls	r2, r2, #5
 8000692:	2180      	movs	r1, #128	; 0x80
 8000694:	621a      	str	r2, [r3, #32]
 8000696:	2200      	movs	r2, #0
 8000698:	4b1b      	ldr	r3, [pc, #108]	; (8000708 <pwm_init+0x90>)
 800069a:	00c9      	lsls	r1, r1, #3
 800069c:	629a      	str	r2, [r3, #40]	; 0x28
 800069e:	62d9      	str	r1, [r3, #44]	; 0x2c
 80006a0:	491a      	ldr	r1, [pc, #104]	; (800070c <pwm_init+0x94>)
 80006a2:	635a      	str	r2, [r3, #52]	; 0x34
 80006a4:	639a      	str	r2, [r3, #56]	; 0x38
 80006a6:	63da      	str	r2, [r3, #60]	; 0x3c
 80006a8:	6199      	str	r1, [r3, #24]
 80006aa:	2160      	movs	r1, #96	; 0x60
 80006ac:	61d9      	str	r1, [r3, #28]
 80006ae:	2112      	movs	r1, #18
 80006b0:	31ff      	adds	r1, #255	; 0xff
 80006b2:	6219      	str	r1, [r3, #32]
 80006b4:	6998      	ldr	r0, [r3, #24]
 80006b6:	4916      	ldr	r1, [pc, #88]	; (8000710 <pwm_init+0x98>)
 80006b8:	4301      	orrs	r1, r0
 80006ba:	2080      	movs	r0, #128	; 0x80
 80006bc:	6199      	str	r1, [r3, #24]
 80006be:	69d9      	ldr	r1, [r3, #28]
 80006c0:	4301      	orrs	r1, r0
 80006c2:	61d9      	str	r1, [r3, #28]
 80006c4:	2108      	movs	r1, #8
 80006c6:	6099      	str	r1, [r3, #8]
 80006c8:	21cc      	movs	r1, #204	; 0xcc
 80006ca:	0209      	lsls	r1, r1, #8
 80006cc:	6459      	str	r1, [r3, #68]	; 0x44
 80006ce:	4911      	ldr	r1, [pc, #68]	; (8000714 <pwm_init+0x9c>)
 80006d0:	6619      	str	r1, [r3, #96]	; 0x60
 80006d2:	2101      	movs	r1, #1
 80006d4:	6958      	ldr	r0, [r3, #20]
 80006d6:	4308      	orrs	r0, r1
 80006d8:	6158      	str	r0, [r3, #20]
 80006da:	6019      	str	r1, [r3, #0]
 80006dc:	611a      	str	r2, [r3, #16]
 80006de:	68da      	ldr	r2, [r3, #12]
 80006e0:	480d      	ldr	r0, [pc, #52]	; (8000718 <pwm_init+0xa0>)
 80006e2:	430a      	orrs	r2, r1
 80006e4:	21c3      	movs	r1, #195	; 0xc3
 80006e6:	60da      	str	r2, [r3, #12]
 80006e8:	4b0c      	ldr	r3, [pc, #48]	; (800071c <pwm_init+0xa4>)
 80006ea:	0089      	lsls	r1, r1, #2
 80006ec:	585a      	ldr	r2, [r3, r1]
 80006ee:	4002      	ands	r2, r0
 80006f0:	505a      	str	r2, [r3, r1]
 80006f2:	2280      	movs	r2, #128	; 0x80
 80006f4:	0192      	lsls	r2, r2, #6
 80006f6:	601a      	str	r2, [r3, #0]
 80006f8:	4770      	bx	lr
 80006fa:	46c0      	nop			; (mov r8, r8)
 80006fc:	40021000 	.word	0x40021000
 8000700:	00002202 	.word	0x00002202
 8000704:	50000400 	.word	0x50000400
 8000708:	40012c00 	.word	0x40012c00
 800070c:	00006060 	.word	0x00006060
 8000710:	00008080 	.word	0x00008080
 8000714:	00010001 	.word	0x00010001
 8000718:	ffff00ff 	.word	0xffff00ff
 800071c:	e000e100 	.word	0xe000e100

08000720 <rs485_init>:
 8000720:	2380      	movs	r3, #128	; 0x80
 8000722:	4a11      	ldr	r2, [pc, #68]	; (8000768 <rs485_init+0x48>)
 8000724:	029b      	lsls	r3, r3, #10
 8000726:	6bd1      	ldr	r1, [r2, #60]	; 0x3c
 8000728:	20ff      	movs	r0, #255	; 0xff
 800072a:	430b      	orrs	r3, r1
 800072c:	63d3      	str	r3, [r2, #60]	; 0x3c
 800072e:	23a0      	movs	r3, #160	; 0xa0
 8000730:	4a0e      	ldr	r2, [pc, #56]	; (800076c <rs485_init+0x4c>)
 8000732:	05db      	lsls	r3, r3, #23
 8000734:	621a      	str	r2, [r3, #32]
 8000736:	228b      	movs	r2, #139	; 0x8b
 8000738:	4b0d      	ldr	r3, [pc, #52]	; (8000770 <rs485_init+0x50>)
 800073a:	0052      	lsls	r2, r2, #1
 800073c:	60da      	str	r2, [r3, #12]
 800073e:	3af6      	subs	r2, #246	; 0xf6
 8000740:	601a      	str	r2, [r3, #0]
 8000742:	2280      	movs	r2, #128	; 0x80
 8000744:	210d      	movs	r1, #13
 8000746:	01d2      	lsls	r2, r2, #7
 8000748:	609a      	str	r2, [r3, #8]
 800074a:	681a      	ldr	r2, [r3, #0]
 800074c:	430a      	orrs	r2, r1
 800074e:	21c7      	movs	r1, #199	; 0xc7
 8000750:	601a      	str	r2, [r3, #0]
 8000752:	4a08      	ldr	r2, [pc, #32]	; (8000774 <rs485_init+0x54>)
 8000754:	0089      	lsls	r1, r1, #2
 8000756:	5853      	ldr	r3, [r2, r1]
 8000758:	4383      	bics	r3, r0
 800075a:	387f      	subs	r0, #127	; 0x7f
 800075c:	4303      	orrs	r3, r0
 800075e:	5053      	str	r3, [r2, r1]
 8000760:	2380      	movs	r3, #128	; 0x80
 8000762:	055b      	lsls	r3, r3, #21
 8000764:	6013      	str	r3, [r2, #0]
 8000766:	4770      	bx	lr
 8000768:	40021000 	.word	0x40021000
 800076c:	00001110 	.word	0x00001110
 8000770:	40004400 	.word	0x40004400
 8000774:	e000e100 	.word	0xe000e100

08000778 <USART2_IRQHandler>:
 8000778:	b5f8      	push	{r3, r4, r5, r6, r7, lr}
 800077a:	4b35      	ldr	r3, [pc, #212]	; (8000850 <USART2_IRQHandler+0xd8>)
 800077c:	69db      	ldr	r3, [r3, #28]
 800077e:	069b      	lsls	r3, r3, #26
 8000780:	d50e      	bpl.n	80007a0 <USART2_IRQHandler+0x28>
 8000782:	4b34      	ldr	r3, [pc, #208]	; (8000854 <USART2_IRQHandler+0xdc>)
 8000784:	681a      	ldr	r2, [r3, #0]
 8000786:	2a04      	cmp	r2, #4
 8000788:	d902      	bls.n	8000790 <USART2_IRQHandler+0x18>
 800078a:	2100      	movs	r1, #0
 800078c:	4a32      	ldr	r2, [pc, #200]	; (8000858 <USART2_IRQHandler+0xe0>)
 800078e:	7011      	strb	r1, [r2, #0]
 8000790:	2100      	movs	r1, #0
 8000792:	4a2f      	ldr	r2, [pc, #188]	; (8000850 <USART2_IRQHandler+0xd8>)
 8000794:	6a52      	ldr	r2, [r2, #36]	; 0x24
 8000796:	6019      	str	r1, [r3, #0]
 8000798:	4b30      	ldr	r3, [pc, #192]	; (800085c <USART2_IRQHandler+0xe4>)
 800079a:	7819      	ldrb	r1, [r3, #0]
 800079c:	2900      	cmp	r1, #0
 800079e:	d025      	beq.n	80007ec <USART2_IRQHandler+0x74>
 80007a0:	4e2b      	ldr	r6, [pc, #172]	; (8000850 <USART2_IRQHandler+0xd8>)
 80007a2:	4c2f      	ldr	r4, [pc, #188]	; (8000860 <USART2_IRQHandler+0xe8>)
 80007a4:	69f3      	ldr	r3, [r6, #28]
 80007a6:	061b      	lsls	r3, r3, #24
 80007a8:	d515      	bpl.n	80007d6 <USART2_IRQHandler+0x5e>
 80007aa:	4d2e      	ldr	r5, [pc, #184]	; (8000864 <USART2_IRQHandler+0xec>)
 80007ac:	4f2e      	ldr	r7, [pc, #184]	; (8000868 <USART2_IRQHandler+0xf0>)
 80007ae:	e00f      	b.n	80007d0 <USART2_IRQHandler+0x58>
 80007b0:	f000 fb96 	bl	8000ee0 <red_LED_on>
 80007b4:	782b      	ldrb	r3, [r5, #0]
 80007b6:	5cfb      	ldrb	r3, [r7, r3]
 80007b8:	62b3      	str	r3, [r6, #40]	; 0x28
 80007ba:	7823      	ldrb	r3, [r4, #0]
 80007bc:	3b01      	subs	r3, #1
 80007be:	b2db      	uxtb	r3, r3
 80007c0:	7023      	strb	r3, [r4, #0]
 80007c2:	782b      	ldrb	r3, [r5, #0]
 80007c4:	3301      	adds	r3, #1
 80007c6:	b2db      	uxtb	r3, r3
 80007c8:	702b      	strb	r3, [r5, #0]
 80007ca:	69f3      	ldr	r3, [r6, #28]
 80007cc:	061b      	lsls	r3, r3, #24
 80007ce:	d502      	bpl.n	80007d6 <USART2_IRQHandler+0x5e>
 80007d0:	7823      	ldrb	r3, [r4, #0]
 80007d2:	2b00      	cmp	r3, #0
 80007d4:	d1ec      	bne.n	80007b0 <USART2_IRQHandler+0x38>
 80007d6:	7823      	ldrb	r3, [r4, #0]
 80007d8:	2b00      	cmp	r3, #0
 80007da:	d104      	bne.n	80007e6 <USART2_IRQHandler+0x6e>
 80007dc:	2180      	movs	r1, #128	; 0x80
 80007de:	4a1c      	ldr	r2, [pc, #112]	; (8000850 <USART2_IRQHandler+0xd8>)
 80007e0:	6813      	ldr	r3, [r2, #0]
 80007e2:	438b      	bics	r3, r1
 80007e4:	6013      	str	r3, [r2, #0]
 80007e6:	f000 fb83 	bl	8000ef0 <red_LED_off>
 80007ea:	bdf8      	pop	{r3, r4, r5, r6, r7, pc}
 80007ec:	481a      	ldr	r0, [pc, #104]	; (8000858 <USART2_IRQHandler+0xe0>)
 80007ee:	b2d2      	uxtb	r2, r2
 80007f0:	7801      	ldrb	r1, [r0, #0]
 80007f2:	2900      	cmp	r1, #0
 80007f4:	d011      	beq.n	800081a <USART2_IRQHandler+0xa2>
 80007f6:	2901      	cmp	r1, #1
 80007f8:	d01c      	beq.n	8000834 <USART2_IRQHandler+0xbc>
 80007fa:	2902      	cmp	r1, #2
 80007fc:	d01f      	beq.n	800083e <USART2_IRQHandler+0xc6>
 80007fe:	290a      	cmp	r1, #10
 8000800:	d910      	bls.n	8000824 <USART2_IRQHandler+0xac>
 8000802:	4a1a      	ldr	r2, [pc, #104]	; (800086c <USART2_IRQHandler+0xf4>)
 8000804:	3902      	subs	r1, #2
 8000806:	7812      	ldrb	r2, [r2, #0]
 8000808:	428a      	cmp	r2, r1
 800080a:	dac9      	bge.n	80007a0 <USART2_IRQHandler+0x28>
 800080c:	2a08      	cmp	r2, #8
 800080e:	d801      	bhi.n	8000814 <USART2_IRQHandler+0x9c>
 8000810:	2201      	movs	r2, #1
 8000812:	701a      	strb	r2, [r3, #0]
 8000814:	2300      	movs	r3, #0
 8000816:	7003      	strb	r3, [r0, #0]
 8000818:	e7c2      	b.n	80007a0 <USART2_IRQHandler+0x28>
 800081a:	4b15      	ldr	r3, [pc, #84]	; (8000870 <USART2_IRQHandler+0xf8>)
 800081c:	701a      	strb	r2, [r3, #0]
 800081e:	2301      	movs	r3, #1
 8000820:	7003      	strb	r3, [r0, #0]
 8000822:	e7bd      	b.n	80007a0 <USART2_IRQHandler+0x28>
 8000824:	4c13      	ldr	r4, [pc, #76]	; (8000874 <USART2_IRQHandler+0xfc>)
 8000826:	1864      	adds	r4, r4, r1
 8000828:	3101      	adds	r1, #1
 800082a:	3c03      	subs	r4, #3
 800082c:	b2c9      	uxtb	r1, r1
 800082e:	7022      	strb	r2, [r4, #0]
 8000830:	7001      	strb	r1, [r0, #0]
 8000832:	e7e6      	b.n	8000802 <USART2_IRQHandler+0x8a>
 8000834:	4b10      	ldr	r3, [pc, #64]	; (8000878 <USART2_IRQHandler+0x100>)
 8000836:	701a      	strb	r2, [r3, #0]
 8000838:	2302      	movs	r3, #2
 800083a:	7003      	strb	r3, [r0, #0]
 800083c:	e7b0      	b.n	80007a0 <USART2_IRQHandler+0x28>
 800083e:	490b      	ldr	r1, [pc, #44]	; (800086c <USART2_IRQHandler+0xf4>)
 8000840:	700a      	strb	r2, [r1, #0]
 8000842:	2103      	movs	r1, #3
 8000844:	7001      	strb	r1, [r0, #0]
 8000846:	2ac8      	cmp	r2, #200	; 0xc8
 8000848:	d8e4      	bhi.n	8000814 <USART2_IRQHandler+0x9c>
 800084a:	2101      	movs	r1, #1
 800084c:	e7dc      	b.n	8000808 <USART2_IRQHandler+0x90>
 800084e:	46c0      	nop			; (mov r8, r8)
 8000850:	40004400 	.word	0x40004400
 8000854:	200000ec 	.word	0x200000ec
 8000858:	200000f2 	.word	0x200000f2
 800085c:	200000f1 	.word	0x200000f1
 8000860:	2000018a 	.word	0x2000018a
 8000864:	2000018b 	.word	0x2000018b
 8000868:	200000f4 	.word	0x200000f4
 800086c:	20000194 	.word	0x20000194
 8000870:	200000f3 	.word	0x200000f3
 8000874:	2000018c 	.word	0x2000018c
 8000878:	200000f0 	.word	0x200000f0

0800087c <rs485_transmit>:
 800087c:	b5f8      	push	{r3, r4, r5, r6, r7, lr}
 800087e:	2900      	cmp	r1, #0
 8000880:	d030      	beq.n	80008e4 <rs485_transmit+0x68>
 8000882:	1c0f      	adds	r7, r1, #0
 8000884:	2996      	cmp	r1, #150	; 0x96
 8000886:	d82e      	bhi.n	80008e6 <rs485_transmit+0x6a>
 8000888:	4c18      	ldr	r4, [pc, #96]	; (80008ec <rs485_transmit+0x70>)
 800088a:	b2ff      	uxtb	r7, r7
 800088c:	7823      	ldrb	r3, [r4, #0]
 800088e:	b2de      	uxtb	r6, r3
 8000890:	2b00      	cmp	r3, #0
 8000892:	d1fb      	bne.n	800088c <rs485_transmit+0x10>
 8000894:	4d16      	ldr	r5, [pc, #88]	; (80008f0 <rs485_transmit+0x74>)
 8000896:	0001      	movs	r1, r0
 8000898:	003a      	movs	r2, r7
 800089a:	0028      	movs	r0, r5
 800089c:	f002 f922 	bl	8002ae4 <memcpy>
 80008a0:	4914      	ldr	r1, [pc, #80]	; (80008f4 <rs485_transmit+0x78>)
 80008a2:	4a15      	ldr	r2, [pc, #84]	; (80008f8 <rs485_transmit+0x7c>)
 80008a4:	700e      	strb	r6, [r1, #0]
 80008a6:	7027      	strb	r7, [r4, #0]
 80008a8:	69d3      	ldr	r3, [r2, #28]
 80008aa:	2080      	movs	r0, #128	; 0x80
 80008ac:	061b      	lsls	r3, r3, #24
 80008ae:	d40e      	bmi.n	80008ce <rs485_transmit+0x52>
 80008b0:	e010      	b.n	80008d4 <rs485_transmit+0x58>
 80008b2:	780b      	ldrb	r3, [r1, #0]
 80008b4:	5ceb      	ldrb	r3, [r5, r3]
 80008b6:	6293      	str	r3, [r2, #40]	; 0x28
 80008b8:	7823      	ldrb	r3, [r4, #0]
 80008ba:	3b01      	subs	r3, #1
 80008bc:	b2db      	uxtb	r3, r3
 80008be:	7023      	strb	r3, [r4, #0]
 80008c0:	780b      	ldrb	r3, [r1, #0]
 80008c2:	3301      	adds	r3, #1
 80008c4:	b2db      	uxtb	r3, r3
 80008c6:	700b      	strb	r3, [r1, #0]
 80008c8:	69d3      	ldr	r3, [r2, #28]
 80008ca:	4218      	tst	r0, r3
 80008cc:	d002      	beq.n	80008d4 <rs485_transmit+0x58>
 80008ce:	7823      	ldrb	r3, [r4, #0]
 80008d0:	2b00      	cmp	r3, #0
 80008d2:	d1ee      	bne.n	80008b2 <rs485_transmit+0x36>
 80008d4:	7823      	ldrb	r3, [r4, #0]
 80008d6:	2b00      	cmp	r3, #0
 80008d8:	d004      	beq.n	80008e4 <rs485_transmit+0x68>
 80008da:	2180      	movs	r1, #128	; 0x80
 80008dc:	4a06      	ldr	r2, [pc, #24]	; (80008f8 <rs485_transmit+0x7c>)
 80008de:	6813      	ldr	r3, [r2, #0]
 80008e0:	430b      	orrs	r3, r1
 80008e2:	6013      	str	r3, [r2, #0]
 80008e4:	bdf8      	pop	{r3, r4, r5, r6, r7, pc}
 80008e6:	2396      	movs	r3, #150	; 0x96
 80008e8:	1c1f      	adds	r7, r3, #0
 80008ea:	e7cd      	b.n	8000888 <rs485_transmit+0xc>
 80008ec:	2000018a 	.word	0x2000018a
 80008f0:	200000f4 	.word	0x200000f4
 80008f4:	2000018b 	.word	0x2000018b
 80008f8:	40004400 	.word	0x40004400

080008fc <time_sync>:
 80008fc:	b510      	push	{r4, lr}
 80008fe:	0004      	movs	r4, r0
 8000900:	f000 fe28 	bl	8001554 <get_microsecond_time>
 8000904:	2380      	movs	r3, #128	; 0x80
 8000906:	1a20      	subs	r0, r4, r0
 8000908:	0002      	movs	r2, r0
 800090a:	021b      	lsls	r3, r3, #8
 800090c:	4298      	cmp	r0, r3
 800090e:	db00      	blt.n	8000912 <time_sync+0x16>
 8000910:	4a0c      	ldr	r2, [pc, #48]	; (8000944 <time_sync+0x48>)
 8000912:	4b0d      	ldr	r3, [pc, #52]	; (8000948 <time_sync+0x4c>)
 8000914:	429a      	cmp	r2, r3
 8000916:	da00      	bge.n	800091a <time_sync+0x1e>
 8000918:	001a      	movs	r2, r3
 800091a:	4b0c      	ldr	r3, [pc, #48]	; (800094c <time_sync+0x50>)
 800091c:	6819      	ldr	r1, [r3, #0]
 800091e:	1851      	adds	r1, r2, r1
 8000920:	6019      	str	r1, [r3, #0]
 8000922:	0093      	lsls	r3, r2, #2
 8000924:	189b      	adds	r3, r3, r2
 8000926:	00db      	lsls	r3, r3, #3
 8000928:	185b      	adds	r3, r3, r1
 800092a:	141b      	asrs	r3, r3, #16
 800092c:	2b42      	cmp	r3, #66	; 0x42
 800092e:	dd04      	ble.n	800093a <time_sync+0x3e>
 8000930:	2342      	movs	r3, #66	; 0x42
 8000932:	4a07      	ldr	r2, [pc, #28]	; (8000950 <time_sync+0x54>)
 8000934:	021b      	lsls	r3, r3, #8
 8000936:	6053      	str	r3, [r2, #4]
 8000938:	bd10      	pop	{r4, pc}
 800093a:	2b3e      	cmp	r3, #62	; 0x3e
 800093c:	daf9      	bge.n	8000932 <time_sync+0x36>
 800093e:	233e      	movs	r3, #62	; 0x3e
 8000940:	e7f7      	b.n	8000932 <time_sync+0x36>
 8000942:	46c0      	nop			; (mov r8, r8)
 8000944:	00007fff 	.word	0x00007fff
 8000948:	ffff8000 	.word	0xffff8000
 800094c:	20000004 	.word	0x20000004
 8000950:	40021000 	.word	0x40021000

08000954 <get_clock_calibration_value>:
 8000954:	4b01      	ldr	r3, [pc, #4]	; (800095c <get_clock_calibration_value+0x8>)
 8000956:	6858      	ldr	r0, [r3, #4]
 8000958:	b280      	uxth	r0, r0
 800095a:	4770      	bx	lr
 800095c:	40021000 	.word	0x40021000

08000960 <debug_uart_init>:
 8000960:	2280      	movs	r2, #128	; 0x80
 8000962:	4b0e      	ldr	r3, [pc, #56]	; (800099c <debug_uart_init+0x3c>)
 8000964:	01d2      	lsls	r2, r2, #7
 8000966:	6c19      	ldr	r1, [r3, #64]	; 0x40
 8000968:	20c6      	movs	r0, #198	; 0xc6
 800096a:	430a      	orrs	r2, r1
 800096c:	2101      	movs	r1, #1
 800096e:	641a      	str	r2, [r3, #64]	; 0x40
 8000970:	6d5a      	ldr	r2, [r3, #84]	; 0x54
 8000972:	0080      	lsls	r0, r0, #2
 8000974:	430a      	orrs	r2, r1
 8000976:	655a      	str	r2, [r3, #84]	; 0x54
 8000978:	228b      	movs	r2, #139	; 0x8b
 800097a:	21c0      	movs	r1, #192	; 0xc0
 800097c:	4b08      	ldr	r3, [pc, #32]	; (80009a0 <debug_uart_init+0x40>)
 800097e:	0052      	lsls	r2, r2, #1
 8000980:	60da      	str	r2, [r3, #12]
 8000982:	4a08      	ldr	r2, [pc, #32]	; (80009a4 <debug_uart_init+0x44>)
 8000984:	0609      	lsls	r1, r1, #24
 8000986:	601a      	str	r2, [r3, #0]
 8000988:	4a07      	ldr	r2, [pc, #28]	; (80009a8 <debug_uart_init+0x48>)
 800098a:	5813      	ldr	r3, [r2, r0]
 800098c:	021b      	lsls	r3, r3, #8
 800098e:	0a1b      	lsrs	r3, r3, #8
 8000990:	430b      	orrs	r3, r1
 8000992:	5013      	str	r3, [r2, r0]
 8000994:	2380      	movs	r3, #128	; 0x80
 8000996:	051b      	lsls	r3, r3, #20
 8000998:	6013      	str	r3, [r2, #0]
 800099a:	4770      	bx	lr
 800099c:	40021000 	.word	0x40021000
 80009a0:	40013800 	.word	0x40013800
 80009a4:	2000002d 	.word	0x2000002d
 80009a8:	e000e100 	.word	0xe000e100

080009ac <USART1_IRQHandler>:
 80009ac:	4b1e      	ldr	r3, [pc, #120]	; (8000a28 <USART1_IRQHandler+0x7c>)
 80009ae:	b530      	push	{r4, r5, lr}
 80009b0:	69da      	ldr	r2, [r3, #28]
 80009b2:	0692      	lsls	r2, r2, #26
 80009b4:	d50f      	bpl.n	80009d6 <USART1_IRQHandler+0x2a>
 80009b6:	6a5b      	ldr	r3, [r3, #36]	; 0x24
 80009b8:	b2db      	uxtb	r3, r3
 80009ba:	001a      	movs	r2, r3
 80009bc:	3a63      	subs	r2, #99	; 0x63
 80009be:	b2d2      	uxtb	r2, r2
 80009c0:	2a17      	cmp	r2, #23
 80009c2:	d82b      	bhi.n	8000a1c <USART1_IRQHandler+0x70>
 80009c4:	4919      	ldr	r1, [pc, #100]	; (8000a2c <USART1_IRQHandler+0x80>)
 80009c6:	40d1      	lsrs	r1, r2
 80009c8:	07ca      	lsls	r2, r1, #31
 80009ca:	d429      	bmi.n	8000a20 <USART1_IRQHandler+0x74>
 80009cc:	001a      	movs	r2, r3
 80009ce:	21f7      	movs	r1, #247	; 0xf7
 80009d0:	3a48      	subs	r2, #72	; 0x48
 80009d2:	420a      	tst	r2, r1
 80009d4:	d024      	beq.n	8000a20 <USART1_IRQHandler+0x74>
 80009d6:	4814      	ldr	r0, [pc, #80]	; (8000a28 <USART1_IRQHandler+0x7c>)
 80009d8:	4a15      	ldr	r2, [pc, #84]	; (8000a30 <USART1_IRQHandler+0x84>)
 80009da:	69c3      	ldr	r3, [r0, #28]
 80009dc:	061b      	lsls	r3, r3, #24
 80009de:	d514      	bpl.n	8000a0a <USART1_IRQHandler+0x5e>
 80009e0:	2480      	movs	r4, #128	; 0x80
 80009e2:	4914      	ldr	r1, [pc, #80]	; (8000a34 <USART1_IRQHandler+0x88>)
 80009e4:	4d14      	ldr	r5, [pc, #80]	; (8000a38 <USART1_IRQHandler+0x8c>)
 80009e6:	e00d      	b.n	8000a04 <USART1_IRQHandler+0x58>
 80009e8:	780b      	ldrb	r3, [r1, #0]
 80009ea:	5ceb      	ldrb	r3, [r5, r3]
 80009ec:	6283      	str	r3, [r0, #40]	; 0x28
 80009ee:	7813      	ldrb	r3, [r2, #0]
 80009f0:	3b01      	subs	r3, #1
 80009f2:	b2db      	uxtb	r3, r3
 80009f4:	7013      	strb	r3, [r2, #0]
 80009f6:	780b      	ldrb	r3, [r1, #0]
 80009f8:	3301      	adds	r3, #1
 80009fa:	b2db      	uxtb	r3, r3
 80009fc:	700b      	strb	r3, [r1, #0]
 80009fe:	69c3      	ldr	r3, [r0, #28]
 8000a00:	421c      	tst	r4, r3
 8000a02:	d002      	beq.n	8000a0a <USART1_IRQHandler+0x5e>
 8000a04:	7813      	ldrb	r3, [r2, #0]
 8000a06:	2b00      	cmp	r3, #0
 8000a08:	d1ee      	bne.n	80009e8 <USART1_IRQHandler+0x3c>
 8000a0a:	7813      	ldrb	r3, [r2, #0]
 8000a0c:	2b00      	cmp	r3, #0
 8000a0e:	d104      	bne.n	8000a1a <USART1_IRQHandler+0x6e>
 8000a10:	4a05      	ldr	r2, [pc, #20]	; (8000a28 <USART1_IRQHandler+0x7c>)
 8000a12:	490a      	ldr	r1, [pc, #40]	; (8000a3c <USART1_IRQHandler+0x90>)
 8000a14:	6813      	ldr	r3, [r2, #0]
 8000a16:	400b      	ands	r3, r1
 8000a18:	6013      	str	r3, [r2, #0]
 8000a1a:	bd30      	pop	{r4, r5, pc}
 8000a1c:	2b45      	cmp	r3, #69	; 0x45
 8000a1e:	d1d5      	bne.n	80009cc <USART1_IRQHandler+0x20>
 8000a20:	4a07      	ldr	r2, [pc, #28]	; (8000a40 <USART1_IRQHandler+0x94>)
 8000a22:	7013      	strb	r3, [r2, #0]
 8000a24:	e7d7      	b.n	80009d6 <USART1_IRQHandler+0x2a>
 8000a26:	46c0      	nop			; (mov r8, r8)
 8000a28:	40013800 	.word	0x40013800
 8000a2c:	00883067 	.word	0x00883067
 8000a30:	20000292 	.word	0x20000292
 8000a34:	20000293 	.word	0x20000293
 8000a38:	200001fc 	.word	0x200001fc
 8000a3c:	bfffffff 	.word	0xbfffffff
 8000a40:	20000195 	.word	0x20000195

08000a44 <transmit>:
 8000a44:	b5f8      	push	{r3, r4, r5, r6, r7, lr}
 8000a46:	2900      	cmp	r1, #0
 8000a48:	d031      	beq.n	8000aae <transmit+0x6a>
 8000a4a:	1c0f      	adds	r7, r1, #0
 8000a4c:	2996      	cmp	r1, #150	; 0x96
 8000a4e:	d82f      	bhi.n	8000ab0 <transmit+0x6c>
 8000a50:	4c19      	ldr	r4, [pc, #100]	; (8000ab8 <transmit+0x74>)
 8000a52:	b2ff      	uxtb	r7, r7
 8000a54:	7823      	ldrb	r3, [r4, #0]
 8000a56:	b2de      	uxtb	r6, r3
 8000a58:	2b00      	cmp	r3, #0
 8000a5a:	d1fb      	bne.n	8000a54 <transmit+0x10>
 8000a5c:	4d17      	ldr	r5, [pc, #92]	; (8000abc <transmit+0x78>)
 8000a5e:	0001      	movs	r1, r0
 8000a60:	003a      	movs	r2, r7
 8000a62:	0028      	movs	r0, r5
 8000a64:	f002 f83e 	bl	8002ae4 <memcpy>
 8000a68:	4915      	ldr	r1, [pc, #84]	; (8000ac0 <transmit+0x7c>)
 8000a6a:	4a16      	ldr	r2, [pc, #88]	; (8000ac4 <transmit+0x80>)
 8000a6c:	700e      	strb	r6, [r1, #0]
 8000a6e:	7027      	strb	r7, [r4, #0]
 8000a70:	69d3      	ldr	r3, [r2, #28]
 8000a72:	2080      	movs	r0, #128	; 0x80
 8000a74:	061b      	lsls	r3, r3, #24
 8000a76:	d40e      	bmi.n	8000a96 <transmit+0x52>
 8000a78:	e010      	b.n	8000a9c <transmit+0x58>
 8000a7a:	780b      	ldrb	r3, [r1, #0]
 8000a7c:	5ceb      	ldrb	r3, [r5, r3]
 8000a7e:	6293      	str	r3, [r2, #40]	; 0x28
 8000a80:	7823      	ldrb	r3, [r4, #0]
 8000a82:	3b01      	subs	r3, #1
 8000a84:	b2db      	uxtb	r3, r3
 8000a86:	7023      	strb	r3, [r4, #0]
 8000a88:	780b      	ldrb	r3, [r1, #0]
 8000a8a:	3301      	adds	r3, #1
 8000a8c:	b2db      	uxtb	r3, r3
 8000a8e:	700b      	strb	r3, [r1, #0]
 8000a90:	69d3      	ldr	r3, [r2, #28]
 8000a92:	4218      	tst	r0, r3
 8000a94:	d002      	beq.n	8000a9c <transmit+0x58>
 8000a96:	7823      	ldrb	r3, [r4, #0]
 8000a98:	2b00      	cmp	r3, #0
 8000a9a:	d1ee      	bne.n	8000a7a <transmit+0x36>
 8000a9c:	7823      	ldrb	r3, [r4, #0]
 8000a9e:	2b00      	cmp	r3, #0
 8000aa0:	d005      	beq.n	8000aae <transmit+0x6a>
 8000aa2:	2380      	movs	r3, #128	; 0x80
 8000aa4:	4a07      	ldr	r2, [pc, #28]	; (8000ac4 <transmit+0x80>)
 8000aa6:	05db      	lsls	r3, r3, #23
 8000aa8:	6811      	ldr	r1, [r2, #0]
 8000aaa:	430b      	orrs	r3, r1
 8000aac:	6013      	str	r3, [r2, #0]
 8000aae:	bdf8      	pop	{r3, r4, r5, r6, r7, pc}
 8000ab0:	2396      	movs	r3, #150	; 0x96
 8000ab2:	1c1f      	adds	r7, r3, #0
 8000ab4:	e7cc      	b.n	8000a50 <transmit+0xc>
 8000ab6:	46c0      	nop			; (mov r8, r8)
 8000ab8:	20000292 	.word	0x20000292
 8000abc:	200001fc 	.word	0x200001fc
 8000ac0:	20000293 	.word	0x20000293
 8000ac4:	40013800 	.word	0x40013800

08000ac8 <transmit_without_interrupts>:
 8000ac8:	b530      	push	{r4, r5, lr}
 8000aca:	0005      	movs	r5, r0
 8000acc:	1e0c      	subs	r4, r1, #0
 8000ace:	d00a      	beq.n	8000ae6 <transmit_without_interrupts+0x1e>
 8000ad0:	2000      	movs	r0, #0
 8000ad2:	2180      	movs	r1, #128	; 0x80
 8000ad4:	4a04      	ldr	r2, [pc, #16]	; (8000ae8 <transmit_without_interrupts+0x20>)
 8000ad6:	69d3      	ldr	r3, [r2, #28]
 8000ad8:	4219      	tst	r1, r3
 8000ada:	d0fc      	beq.n	8000ad6 <transmit_without_interrupts+0xe>
 8000adc:	5c2b      	ldrb	r3, [r5, r0]
 8000ade:	3001      	adds	r0, #1
 8000ae0:	6293      	str	r3, [r2, #40]	; 0x28
 8000ae2:	42a0      	cmp	r0, r4
 8000ae4:	dbf7      	blt.n	8000ad6 <transmit_without_interrupts+0xe>
 8000ae6:	bd30      	pop	{r4, r5, pc}
 8000ae8:	40013800 	.word	0x40013800

08000aec <print_number>:
 8000aec:	b5f8      	push	{r3, r4, r5, r6, r7, lr}
 8000aee:	46de      	mov	lr, fp
 8000af0:	4657      	mov	r7, sl
 8000af2:	4645      	mov	r5, r8
 8000af4:	464e      	mov	r6, r9
 8000af6:	b5e0      	push	{r5, r6, r7, lr}
 8000af8:	0006      	movs	r6, r0
 8000afa:	000d      	movs	r5, r1
 8000afc:	f7ff fb00 	bl	8000100 <strlen>
 8000b00:	4b42      	ldr	r3, [pc, #264]	; (8000c0c <print_number+0x120>)
 8000b02:	0004      	movs	r4, r0
 8000b04:	0031      	movs	r1, r6
 8000b06:	1c42      	adds	r2, r0, #1
 8000b08:	b2c7      	uxtb	r7, r0
 8000b0a:	0018      	movs	r0, r3
 8000b0c:	4698      	mov	r8, r3
 8000b0e:	f001 ffe9 	bl	8002ae4 <memcpy>
 8000b12:	23ff      	movs	r3, #255	; 0xff
 8000b14:	401c      	ands	r4, r3
 8000b16:	469a      	mov	sl, r3
 8000b18:	4643      	mov	r3, r8
 8000b1a:	191e      	adds	r6, r3, r4
 8000b1c:	2d00      	cmp	r5, #0
 8000b1e:	d051      	beq.n	8000bc4 <print_number+0xd8>
 8000b20:	210a      	movs	r1, #10
 8000b22:	0028      	movs	r0, r5
 8000b24:	f7ff fb84 	bl	8000230 <__aeabi_uidivmod>
 8000b28:	3130      	adds	r1, #48	; 0x30
 8000b2a:	7131      	strb	r1, [r6, #4]
 8000b2c:	0028      	movs	r0, r5
 8000b2e:	210a      	movs	r1, #10
 8000b30:	f7ff faf8 	bl	8000124 <__udivsi3>
 8000b34:	b283      	uxth	r3, r0
 8000b36:	4699      	mov	r9, r3
 8000b38:	4b35      	ldr	r3, [pc, #212]	; (8000c10 <print_number+0x124>)
 8000b3a:	469b      	mov	fp, r3
 8000b3c:	2300      	movs	r3, #0
 8000b3e:	465a      	mov	r2, fp
 8000b40:	7013      	strb	r3, [r2, #0]
 8000b42:	2d09      	cmp	r5, #9
 8000b44:	d954      	bls.n	8000bf0 <print_number+0x104>
 8000b46:	4648      	mov	r0, r9
 8000b48:	210a      	movs	r1, #10
 8000b4a:	f7ff fb71 	bl	8000230 <__aeabi_uidivmod>
 8000b4e:	3130      	adds	r1, #48	; 0x30
 8000b50:	4648      	mov	r0, r9
 8000b52:	70f1      	strb	r1, [r6, #3]
 8000b54:	210a      	movs	r1, #10
 8000b56:	f7ff fae5 	bl	8000124 <__udivsi3>
 8000b5a:	b283      	uxth	r3, r0
 8000b5c:	4699      	mov	r9, r3
 8000b5e:	2d63      	cmp	r5, #99	; 0x63
 8000b60:	d94a      	bls.n	8000bf8 <print_number+0x10c>
 8000b62:	0018      	movs	r0, r3
 8000b64:	210a      	movs	r1, #10
 8000b66:	f7ff fb63 	bl	8000230 <__aeabi_uidivmod>
 8000b6a:	3130      	adds	r1, #48	; 0x30
 8000b6c:	4648      	mov	r0, r9
 8000b6e:	70b1      	strb	r1, [r6, #2]
 8000b70:	210a      	movs	r1, #10
 8000b72:	f7ff fad7 	bl	8000124 <__udivsi3>
 8000b76:	b283      	uxth	r3, r0
 8000b78:	4699      	mov	r9, r3
 8000b7a:	23fa      	movs	r3, #250	; 0xfa
 8000b7c:	009b      	lsls	r3, r3, #2
 8000b7e:	429d      	cmp	r5, r3
 8000b80:	d33c      	bcc.n	8000bfc <print_number+0x110>
 8000b82:	210a      	movs	r1, #10
 8000b84:	4648      	mov	r0, r9
 8000b86:	f7ff fb53 	bl	8000230 <__aeabi_uidivmod>
 8000b8a:	3130      	adds	r1, #48	; 0x30
 8000b8c:	7071      	strb	r1, [r6, #1]
 8000b8e:	4648      	mov	r0, r9
 8000b90:	210a      	movs	r1, #10
 8000b92:	f7ff fac7 	bl	8000124 <__udivsi3>
 8000b96:	4b1f      	ldr	r3, [pc, #124]	; (8000c14 <print_number+0x128>)
 8000b98:	b280      	uxth	r0, r0
 8000b9a:	429d      	cmp	r5, r3
 8000b9c:	d930      	bls.n	8000c00 <print_number+0x114>
 8000b9e:	4652      	mov	r2, sl
 8000ba0:	4b1d      	ldr	r3, [pc, #116]	; (8000c18 <print_number+0x12c>)
 8000ba2:	3030      	adds	r0, #48	; 0x30
 8000ba4:	7030      	strb	r0, [r6, #0]
 8000ba6:	701a      	strb	r2, [r3, #0]
 8000ba8:	230a      	movs	r3, #10
 8000baa:	4444      	add	r4, r8
 8000bac:	3706      	adds	r7, #6
 8000bae:	4640      	mov	r0, r8
 8000bb0:	b2f9      	uxtb	r1, r7
 8000bb2:	7163      	strb	r3, [r4, #5]
 8000bb4:	f7ff ff46 	bl	8000a44 <transmit>
 8000bb8:	bcf0      	pop	{r4, r5, r6, r7}
 8000bba:	46bb      	mov	fp, r7
 8000bbc:	46b2      	mov	sl, r6
 8000bbe:	46a9      	mov	r9, r5
 8000bc0:	46a0      	mov	r8, r4
 8000bc2:	bdf8      	pop	{r3, r4, r5, r6, r7, pc}
 8000bc4:	4b12      	ldr	r3, [pc, #72]	; (8000c10 <print_number+0x124>)
 8000bc6:	469b      	mov	fp, r3
 8000bc8:	781b      	ldrb	r3, [r3, #0]
 8000bca:	b25b      	sxtb	r3, r3
 8000bcc:	2b00      	cmp	r3, #0
 8000bce:	d019      	beq.n	8000c04 <print_number+0x118>
 8000bd0:	2330      	movs	r3, #48	; 0x30
 8000bd2:	7133      	strb	r3, [r6, #4]
 8000bd4:	3b2d      	subs	r3, #45	; 0x2d
 8000bd6:	1e5a      	subs	r2, r3, #1
 8000bd8:	b259      	sxtb	r1, r3
 8000bda:	b2d3      	uxtb	r3, r2
 8000bdc:	2220      	movs	r2, #32
 8000bde:	5472      	strb	r2, [r6, r1]
 8000be0:	2bff      	cmp	r3, #255	; 0xff
 8000be2:	d1f8      	bne.n	8000bd6 <print_number+0xea>
 8000be4:	2200      	movs	r2, #0
 8000be6:	4659      	mov	r1, fp
 8000be8:	700a      	strb	r2, [r1, #0]
 8000bea:	4a0b      	ldr	r2, [pc, #44]	; (8000c18 <print_number+0x12c>)
 8000bec:	7013      	strb	r3, [r2, #0]
 8000bee:	e7db      	b.n	8000ba8 <print_number+0xbc>
 8000bf0:	2103      	movs	r1, #3
 8000bf2:	1e4b      	subs	r3, r1, #1
 8000bf4:	b2db      	uxtb	r3, r3
 8000bf6:	e7f1      	b.n	8000bdc <print_number+0xf0>
 8000bf8:	2102      	movs	r1, #2
 8000bfa:	e7fa      	b.n	8000bf2 <print_number+0x106>
 8000bfc:	2101      	movs	r1, #1
 8000bfe:	e7f8      	b.n	8000bf2 <print_number+0x106>
 8000c00:	2100      	movs	r1, #0
 8000c02:	e7f6      	b.n	8000bf2 <print_number+0x106>
 8000c04:	2104      	movs	r1, #4
 8000c06:	3303      	adds	r3, #3
 8000c08:	e7e8      	b.n	8000bdc <print_number+0xf0>
 8000c0a:	46c0      	nop			; (mov r8, r8)
 8000c0c:	20000198 	.word	0x20000198
 8000c10:	20000008 	.word	0x20000008
 8000c14:	0000270f 	.word	0x0000270f
 8000c18:	20000196 	.word	0x20000196

08000c1c <get_command_uart1>:
 8000c1c:	4a03      	ldr	r2, [pc, #12]	; (8000c2c <get_command_uart1+0x10>)
 8000c1e:	7813      	ldrb	r3, [r2, #0]
 8000c20:	b2d8      	uxtb	r0, r3
 8000c22:	2b00      	cmp	r3, #0
 8000c24:	d001      	beq.n	8000c2a <get_command_uart1+0xe>
 8000c26:	2300      	movs	r3, #0
 8000c28:	7013      	strb	r3, [r2, #0]
 8000c2a:	4770      	bx	lr
 8000c2c:	20000195 	.word	0x20000195

08000c30 <fatal_error>:
 8000c30:	b5f0      	push	{r4, r5, r6, r7, lr}
 8000c32:	4647      	mov	r7, r8
 8000c34:	46ce      	mov	lr, r9
 8000c36:	b580      	push	{r7, lr}
 8000c38:	000e      	movs	r6, r1
 8000c3a:	b085      	sub	sp, #20
 8000c3c:	0007      	movs	r7, r0
 8000c3e:	b672      	cpsid	i
 8000c40:	f000 fcd4 	bl	80015ec <disable_mosfets>
 8000c44:	f000 f95c 	bl	8000f00 <green_LED_off>
 8000c48:	0032      	movs	r2, r6
 8000c4a:	4922      	ldr	r1, [pc, #136]	; (8000cd4 <fatal_error+0xa4>)
 8000c4c:	a801      	add	r0, sp, #4
 8000c4e:	f001 ff5b 	bl	8002b08 <siprintf>
 8000c52:	1cf3      	adds	r3, r6, #3
 8000c54:	4699      	mov	r9, r3
 8000c56:	2300      	movs	r3, #0
 8000c58:	4698      	mov	r8, r3
 8000c5a:	4c1f      	ldr	r4, [pc, #124]	; (8000cd8 <fatal_error+0xa8>)
 8000c5c:	2500      	movs	r5, #0
 8000c5e:	2e00      	cmp	r6, #0
 8000c60:	d02e      	beq.n	8000cc0 <fatal_error+0x90>
 8000c62:	42ae      	cmp	r6, r5
 8000c64:	d901      	bls.n	8000c6a <fatal_error+0x3a>
 8000c66:	f000 f93b 	bl	8000ee0 <red_LED_on>
 8000c6a:	4643      	mov	r3, r8
 8000c6c:	9300      	str	r3, [sp, #0]
 8000c6e:	9b00      	ldr	r3, [sp, #0]
 8000c70:	42a3      	cmp	r3, r4
 8000c72:	d82c      	bhi.n	8000cce <fatal_error+0x9e>
 8000c74:	9b00      	ldr	r3, [sp, #0]
 8000c76:	3301      	adds	r3, #1
 8000c78:	9300      	str	r3, [sp, #0]
 8000c7a:	9b00      	ldr	r3, [sp, #0]
 8000c7c:	42a3      	cmp	r3, r4
 8000c7e:	d9f9      	bls.n	8000c74 <fatal_error+0x44>
 8000c80:	2e00      	cmp	r6, #0
 8000c82:	d124      	bne.n	8000cce <fatal_error+0x9e>
 8000c84:	0038      	movs	r0, r7
 8000c86:	f7ff fa3b 	bl	8000100 <strlen>
 8000c8a:	b2c1      	uxtb	r1, r0
 8000c8c:	0038      	movs	r0, r7
 8000c8e:	f7ff ff1b 	bl	8000ac8 <transmit_without_interrupts>
 8000c92:	a801      	add	r0, sp, #4
 8000c94:	f7ff fa34 	bl	8000100 <strlen>
 8000c98:	b2c1      	uxtb	r1, r0
 8000c9a:	a801      	add	r0, sp, #4
 8000c9c:	f7ff ff14 	bl	8000ac8 <transmit_without_interrupts>
 8000ca0:	4643      	mov	r3, r8
 8000ca2:	9300      	str	r3, [sp, #0]
 8000ca4:	9b00      	ldr	r3, [sp, #0]
 8000ca6:	42a3      	cmp	r3, r4
 8000ca8:	d805      	bhi.n	8000cb6 <fatal_error+0x86>
 8000caa:	9b00      	ldr	r3, [sp, #0]
 8000cac:	3301      	adds	r3, #1
 8000cae:	9300      	str	r3, [sp, #0]
 8000cb0:	9b00      	ldr	r3, [sp, #0]
 8000cb2:	42a3      	cmp	r3, r4
 8000cb4:	d9f9      	bls.n	8000caa <fatal_error+0x7a>
 8000cb6:	3501      	adds	r5, #1
 8000cb8:	45a9      	cmp	r9, r5
 8000cba:	d9cf      	bls.n	8000c5c <fatal_error+0x2c>
 8000cbc:	2e00      	cmp	r6, #0
 8000cbe:	d1d0      	bne.n	8000c62 <fatal_error+0x32>
 8000cc0:	f000 f90e 	bl	8000ee0 <red_LED_on>
 8000cc4:	9600      	str	r6, [sp, #0]
 8000cc6:	9b00      	ldr	r3, [sp, #0]
 8000cc8:	42a3      	cmp	r3, r4
 8000cca:	d9d3      	bls.n	8000c74 <fatal_error+0x44>
 8000ccc:	e7da      	b.n	8000c84 <fatal_error+0x54>
 8000cce:	f000 f90f 	bl	8000ef0 <red_LED_off>
 8000cd2:	e7d7      	b.n	8000c84 <fatal_error+0x54>
 8000cd4:	080037b8 	.word	0x080037b8
 8000cd8:	000f423f 	.word	0x000f423f

08000cdc <get_hall_position>:
 8000cdc:	b5f8      	push	{r3, r4, r5, r6, r7, lr}
 8000cde:	485d      	ldr	r0, [pc, #372]	; (8000e54 <get_hall_position+0x178>)
 8000ce0:	4d5d      	ldr	r5, [pc, #372]	; (8000e58 <get_hall_position+0x17c>)
 8000ce2:	8a42      	ldrh	r2, [r0, #18]
 8000ce4:	8843      	ldrh	r3, [r0, #2]
 8000ce6:	88c1      	ldrh	r1, [r0, #6]
 8000ce8:	189b      	adds	r3, r3, r2
 8000cea:	8c42      	ldrh	r2, [r0, #34]	; 0x22
 8000cec:	8b44      	ldrh	r4, [r0, #26]
 8000cee:	189b      	adds	r3, r3, r2
 8000cf0:	8e42      	ldrh	r2, [r0, #50]	; 0x32
 8000cf2:	189b      	adds	r3, r3, r2
 8000cf4:	4a59      	ldr	r2, [pc, #356]	; (8000e5c <get_hall_position+0x180>)
 8000cf6:	00db      	lsls	r3, r3, #3
 8000cf8:	4694      	mov	ip, r2
 8000cfa:	4a59      	ldr	r2, [pc, #356]	; (8000e60 <get_hall_position+0x184>)
 8000cfc:	4463      	add	r3, ip
 8000cfe:	4694      	mov	ip, r2
 8000d00:	8ac2      	ldrh	r2, [r0, #22]
 8000d02:	b29b      	uxth	r3, r3
 8000d04:	1889      	adds	r1, r1, r2
 8000d06:	8cc2      	ldrh	r2, [r0, #38]	; 0x26
 8000d08:	4463      	add	r3, ip
 8000d0a:	1889      	adds	r1, r1, r2
 8000d0c:	8ec2      	ldrh	r2, [r0, #54]	; 0x36
 8000d0e:	435d      	muls	r5, r3
 8000d10:	1889      	adds	r1, r1, r2
 8000d12:	4a52      	ldr	r2, [pc, #328]	; (8000e5c <get_hall_position+0x180>)
 8000d14:	00c9      	lsls	r1, r1, #3
 8000d16:	4694      	mov	ip, r2
 8000d18:	4a52      	ldr	r2, [pc, #328]	; (8000e64 <get_hall_position+0x188>)
 8000d1a:	4461      	add	r1, ip
 8000d1c:	4694      	mov	ip, r2
 8000d1e:	8942      	ldrh	r2, [r0, #10]
 8000d20:	b289      	uxth	r1, r1
 8000d22:	1912      	adds	r2, r2, r4
 8000d24:	8d44      	ldrh	r4, [r0, #42]	; 0x2a
 8000d26:	8f40      	ldrh	r0, [r0, #58]	; 0x3a
 8000d28:	1912      	adds	r2, r2, r4
 8000d2a:	1812      	adds	r2, r2, r0
 8000d2c:	484b      	ldr	r0, [pc, #300]	; (8000e5c <get_hall_position+0x180>)
 8000d2e:	4461      	add	r1, ip
 8000d30:	4684      	mov	ip, r0
 8000d32:	484d      	ldr	r0, [pc, #308]	; (8000e68 <get_hall_position+0x18c>)
 8000d34:	00d2      	lsls	r2, r2, #3
 8000d36:	4462      	add	r2, ip
 8000d38:	4684      	mov	ip, r0
 8000d3a:	20b5      	movs	r0, #181	; 0xb5
 8000d3c:	0040      	lsls	r0, r0, #1
 8000d3e:	4348      	muls	r0, r1
 8000d40:	b292      	uxth	r2, r2
 8000d42:	4462      	add	r2, ip
 8000d44:	182d      	adds	r5, r5, r0
 8000d46:	05d0      	lsls	r0, r2, #23
 8000d48:	1a80      	subs	r0, r0, r2
 8000d4a:	0100      	lsls	r0, r0, #4
 8000d4c:	1880      	adds	r0, r0, r2
 8000d4e:	0044      	lsls	r4, r0, #1
 8000d50:	18a4      	adds	r4, r4, r2
 8000d52:	0124      	lsls	r4, r4, #4
 8000d54:	192d      	adds	r5, r5, r4
 8000d56:	24da      	movs	r4, #218	; 0xda
 8000d58:	0124      	lsls	r4, r4, #4
 8000d5a:	434c      	muls	r4, r1
 8000d5c:	00c0      	lsls	r0, r0, #3
 8000d5e:	1880      	adds	r0, r0, r2
 8000d60:	0080      	lsls	r0, r0, #2
 8000d62:	1820      	adds	r0, r4, r0
 8000d64:	00dc      	lsls	r4, r3, #3
 8000d66:	18e4      	adds	r4, r4, r3
 8000d68:	00a4      	lsls	r4, r4, #2
 8000d6a:	18e4      	adds	r4, r4, r3
 8000d6c:	0126      	lsls	r6, r4, #4
 8000d6e:	19a4      	adds	r4, r4, r6
 8000d70:	1900      	adds	r0, r0, r4
 8000d72:	4c3e      	ldr	r4, [pc, #248]	; (8000e6c <get_hall_position+0x190>)
 8000d74:	4362      	muls	r2, r4
 8000d76:	011c      	lsls	r4, r3, #4
 8000d78:	18e4      	adds	r4, r4, r3
 8000d7a:	00a4      	lsls	r4, r4, #2
 8000d7c:	18e3      	adds	r3, r4, r3
 8000d7e:	009b      	lsls	r3, r3, #2
 8000d80:	18d2      	adds	r2, r2, r3
 8000d82:	060b      	lsls	r3, r1, #24
 8000d84:	1a5b      	subs	r3, r3, r1
 8000d86:	019b      	lsls	r3, r3, #6
 8000d88:	185b      	adds	r3, r3, r1
 8000d8a:	009b      	lsls	r3, r3, #2
 8000d8c:	1859      	adds	r1, r3, r1
 8000d8e:	1851      	adds	r1, r2, r1
 8000d90:	4285      	cmp	r5, r0
 8000d92:	dd08      	ble.n	8000da6 <get_hall_position+0xca>
 8000d94:	428d      	cmp	r5, r1
 8000d96:	dd06      	ble.n	8000da6 <get_hall_position+0xca>
 8000d98:	1a43      	subs	r3, r0, r1
 8000d9a:	4288      	cmp	r0, r1
 8000d9c:	da4e      	bge.n	8000e3c <get_hall_position+0x160>
 8000d9e:	2400      	movs	r4, #0
 8000da0:	2600      	movs	r6, #0
 8000da2:	1a29      	subs	r1, r5, r0
 8000da4:	e007      	b.n	8000db6 <get_hall_position+0xda>
 8000da6:	4288      	cmp	r0, r1
 8000da8:	dc2e      	bgt.n	8000e08 <get_hall_position+0x12c>
 8000daa:	1a2b      	subs	r3, r5, r0
 8000dac:	4285      	cmp	r5, r0
 8000dae:	da41      	bge.n	8000e34 <get_hall_position+0x158>
 8000db0:	2402      	movs	r4, #2
 8000db2:	2602      	movs	r6, #2
 8000db4:	1b49      	subs	r1, r1, r5
 8000db6:	129b      	asrs	r3, r3, #10
 8000db8:	0118      	lsls	r0, r3, #4
 8000dba:	1ac0      	subs	r0, r0, r3
 8000dbc:	4d2c      	ldr	r5, [pc, #176]	; (8000e70 <get_hall_position+0x194>)
 8000dbe:	0200      	lsls	r0, r0, #8
 8000dc0:	1289      	asrs	r1, r1, #10
 8000dc2:	f7ff fa39 	bl	8000238 <__divsi3>
 8000dc6:	6a6f      	ldr	r7, [r5, #36]	; 0x24
 8000dc8:	6a6b      	ldr	r3, [r5, #36]	; 0x24
 8000dca:	4a2a      	ldr	r2, [pc, #168]	; (8000e74 <get_hall_position+0x198>)
 8000dcc:	1bdf      	subs	r7, r3, r7
 8000dce:	4b2a      	ldr	r3, [pc, #168]	; (8000e78 <get_hall_position+0x19c>)
 8000dd0:	801f      	strh	r7, [r3, #0]
 8000dd2:	23f0      	movs	r3, #240	; 0xf0
 8000dd4:	011b      	lsls	r3, r3, #4
 8000dd6:	469c      	mov	ip, r3
 8000dd8:	2300      	movs	r3, #0
 8000dda:	56d3      	ldrsb	r3, [r2, r3]
 8000ddc:	4460      	add	r0, ip
 8000dde:	1c59      	adds	r1, r3, #1
 8000de0:	d023      	beq.n	8000e2a <get_hall_position+0x14e>
 8000de2:	42b3      	cmp	r3, r6
 8000de4:	d032      	beq.n	8000e4c <get_hall_position+0x170>
 8000de6:	1ae3      	subs	r3, r4, r3
 8000de8:	2b01      	cmp	r3, #1
 8000dea:	d016      	beq.n	8000e1a <get_hall_position+0x13e>
 8000dec:	3302      	adds	r3, #2
 8000dee:	d014      	beq.n	8000e1a <get_hall_position+0x13e>
 8000df0:	4c22      	ldr	r4, [pc, #136]	; (8000e7c <get_hall_position+0x1a0>)
 8000df2:	4923      	ldr	r1, [pc, #140]	; (8000e80 <get_hall_position+0x1a4>)
 8000df4:	46a4      	mov	ip, r4
 8000df6:	680b      	ldr	r3, [r1, #0]
 8000df8:	4463      	add	r3, ip
 8000dfa:	600b      	str	r3, [r1, #0]
 8000dfc:	7016      	strb	r6, [r2, #0]
 8000dfe:	18c0      	adds	r0, r0, r3
 8000e00:	4b20      	ldr	r3, [pc, #128]	; (8000e84 <get_hall_position+0x1a8>)
 8000e02:	681b      	ldr	r3, [r3, #0]
 8000e04:	1ac0      	subs	r0, r0, r3
 8000e06:	bdf8      	pop	{r3, r4, r5, r6, r7, pc}
 8000e08:	4285      	cmp	r5, r0
 8000e0a:	da12      	bge.n	8000e32 <get_hall_position+0x156>
 8000e0c:	1b4b      	subs	r3, r1, r5
 8000e0e:	428d      	cmp	r5, r1
 8000e10:	dd18      	ble.n	8000e44 <get_hall_position+0x168>
 8000e12:	2401      	movs	r4, #1
 8000e14:	2601      	movs	r6, #1
 8000e16:	1a41      	subs	r1, r0, r1
 8000e18:	e7cd      	b.n	8000db6 <get_hall_position+0xda>
 8000e1a:	24f0      	movs	r4, #240	; 0xf0
 8000e1c:	0164      	lsls	r4, r4, #5
 8000e1e:	46a4      	mov	ip, r4
 8000e20:	4917      	ldr	r1, [pc, #92]	; (8000e80 <get_hall_position+0x1a4>)
 8000e22:	680b      	ldr	r3, [r1, #0]
 8000e24:	4463      	add	r3, ip
 8000e26:	600b      	str	r3, [r1, #0]
 8000e28:	e7e8      	b.n	8000dfc <get_hall_position+0x120>
 8000e2a:	4b15      	ldr	r3, [pc, #84]	; (8000e80 <get_hall_position+0x1a4>)
 8000e2c:	7016      	strb	r6, [r2, #0]
 8000e2e:	681b      	ldr	r3, [r3, #0]
 8000e30:	e7e5      	b.n	8000dfe <get_hall_position+0x122>
 8000e32:	1a2b      	subs	r3, r5, r0
 8000e34:	2402      	movs	r4, #2
 8000e36:	2602      	movs	r6, #2
 8000e38:	1a09      	subs	r1, r1, r0
 8000e3a:	e7bc      	b.n	8000db6 <get_hall_position+0xda>
 8000e3c:	2400      	movs	r4, #0
 8000e3e:	2600      	movs	r6, #0
 8000e40:	1a69      	subs	r1, r5, r1
 8000e42:	e7b8      	b.n	8000db6 <get_hall_position+0xda>
 8000e44:	2401      	movs	r4, #1
 8000e46:	2601      	movs	r6, #1
 8000e48:	1b41      	subs	r1, r0, r5
 8000e4a:	e7b4      	b.n	8000db6 <get_hall_position+0xda>
 8000e4c:	4b0c      	ldr	r3, [pc, #48]	; (8000e80 <get_hall_position+0x1a4>)
 8000e4e:	681b      	ldr	r3, [r3, #0]
 8000e50:	e7d5      	b.n	8000dfe <get_hall_position+0x122>
 8000e52:	46c0      	nop			; (mov r8, r8)
 8000e54:	200000ac 	.word	0x200000ac
 8000e58:	00000c6e 	.word	0x00000c6e
 8000e5c:	ffff8ad0 	.word	0xffff8ad0
 8000e60:	ffff6b28 	.word	0xffff6b28
 8000e64:	ffff67a3 	.word	0xffff67a3
 8000e68:	ffff6a1d 	.word	0xffff6a1d
 8000e6c:	000011d5 	.word	0x000011d5
 8000e70:	40000400 	.word	0x40000400
 8000e74:	20000009 	.word	0x20000009
 8000e78:	2000029c 	.word	0x2000029c
 8000e7c:	ffffe200 	.word	0xffffe200
 8000e80:	20000298 	.word	0x20000298
 8000e84:	20000294 	.word	0x20000294

08000e88 <zero_hall_position>:
 8000e88:	22ff      	movs	r2, #255	; 0xff
 8000e8a:	4b06      	ldr	r3, [pc, #24]	; (8000ea4 <zero_hall_position+0x1c>)
 8000e8c:	b510      	push	{r4, lr}
 8000e8e:	701a      	strb	r2, [r3, #0]
 8000e90:	2300      	movs	r3, #0
 8000e92:	4c05      	ldr	r4, [pc, #20]	; (8000ea8 <zero_hall_position+0x20>)
 8000e94:	4a05      	ldr	r2, [pc, #20]	; (8000eac <zero_hall_position+0x24>)
 8000e96:	6023      	str	r3, [r4, #0]
 8000e98:	6013      	str	r3, [r2, #0]
 8000e9a:	f7ff ff1f 	bl	8000cdc <get_hall_position>
 8000e9e:	6020      	str	r0, [r4, #0]
 8000ea0:	bd10      	pop	{r4, pc}
 8000ea2:	46c0      	nop			; (mov r8, r8)
 8000ea4:	20000009 	.word	0x20000009
 8000ea8:	20000294 	.word	0x20000294
 8000eac:	20000298 	.word	0x20000298

08000eb0 <print_hall_position>:
 8000eb0:	b500      	push	{lr}
 8000eb2:	b09b      	sub	sp, #108	; 0x6c
 8000eb4:	f7ff ff12 	bl	8000cdc <get_hall_position>
 8000eb8:	4b07      	ldr	r3, [pc, #28]	; (8000ed8 <print_hall_position+0x28>)
 8000eba:	0002      	movs	r2, r0
 8000ebc:	881b      	ldrh	r3, [r3, #0]
 8000ebe:	4907      	ldr	r1, [pc, #28]	; (8000edc <print_hall_position+0x2c>)
 8000ec0:	a801      	add	r0, sp, #4
 8000ec2:	f001 fe21 	bl	8002b08 <siprintf>
 8000ec6:	a801      	add	r0, sp, #4
 8000ec8:	f7ff f91a 	bl	8000100 <strlen>
 8000ecc:	b2c1      	uxtb	r1, r0
 8000ece:	a801      	add	r0, sp, #4
 8000ed0:	f7ff fdb8 	bl	8000a44 <transmit>
 8000ed4:	b01b      	add	sp, #108	; 0x6c
 8000ed6:	bd00      	pop	{pc}
 8000ed8:	2000029c 	.word	0x2000029c
 8000edc:	0800335c 	.word	0x0800335c

08000ee0 <red_LED_on>:
 8000ee0:	2280      	movs	r2, #128	; 0x80
 8000ee2:	4b02      	ldr	r3, [pc, #8]	; (8000eec <red_LED_on+0xc>)
 8000ee4:	01d2      	lsls	r2, r2, #7
 8000ee6:	619a      	str	r2, [r3, #24]
 8000ee8:	4770      	bx	lr
 8000eea:	46c0      	nop			; (mov r8, r8)
 8000eec:	50000800 	.word	0x50000800

08000ef0 <red_LED_off>:
 8000ef0:	2280      	movs	r2, #128	; 0x80
 8000ef2:	4b02      	ldr	r3, [pc, #8]	; (8000efc <red_LED_off+0xc>)
 8000ef4:	05d2      	lsls	r2, r2, #23
 8000ef6:	619a      	str	r2, [r3, #24]
 8000ef8:	4770      	bx	lr
 8000efa:	46c0      	nop			; (mov r8, r8)
 8000efc:	50000800 	.word	0x50000800

08000f00 <green_LED_off>:
 8000f00:	2280      	movs	r2, #128	; 0x80
 8000f02:	4b02      	ldr	r3, [pc, #8]	; (8000f0c <green_LED_off+0xc>)
 8000f04:	0612      	lsls	r2, r2, #24
 8000f06:	619a      	str	r2, [r3, #24]
 8000f08:	4770      	bx	lr
 8000f0a:	46c0      	nop			; (mov r8, r8)
 8000f0c:	50000800 	.word	0x50000800

08000f10 <green_LED_toggle>:
 8000f10:	2280      	movs	r2, #128	; 0x80
 8000f12:	4b05      	ldr	r3, [pc, #20]	; (8000f28 <green_LED_toggle+0x18>)
 8000f14:	0212      	lsls	r2, r2, #8
 8000f16:	6959      	ldr	r1, [r3, #20]
 8000f18:	4211      	tst	r1, r2
 8000f1a:	d003      	beq.n	8000f24 <green_LED_toggle+0x14>
 8000f1c:	2280      	movs	r2, #128	; 0x80
 8000f1e:	0612      	lsls	r2, r2, #24
 8000f20:	619a      	str	r2, [r3, #24]
 8000f22:	4770      	bx	lr
 8000f24:	619a      	str	r2, [r3, #24]
 8000f26:	e7fc      	b.n	8000f22 <green_LED_toggle+0x12>
 8000f28:	50000800 	.word	0x50000800

08000f2c <SysTick_Handler>:
 8000f2c:	b510      	push	{r4, lr}
 8000f2e:	4c09      	ldr	r4, [pc, #36]	; (8000f54 <SysTick_Handler+0x28>)
 8000f30:	8823      	ldrh	r3, [r4, #0]
 8000f32:	3301      	adds	r3, #1
 8000f34:	b29b      	uxth	r3, r3
 8000f36:	8023      	strh	r3, [r4, #0]
 8000f38:	2b31      	cmp	r3, #49	; 0x31
 8000f3a:	d806      	bhi.n	8000f4a <SysTick_Handler+0x1e>
 8000f3c:	4a06      	ldr	r2, [pc, #24]	; (8000f58 <SysTick_Handler+0x2c>)
 8000f3e:	6813      	ldr	r3, [r2, #0]
 8000f40:	2b04      	cmp	r3, #4
 8000f42:	d801      	bhi.n	8000f48 <SysTick_Handler+0x1c>
 8000f44:	3301      	adds	r3, #1
 8000f46:	6013      	str	r3, [r2, #0]
 8000f48:	bd10      	pop	{r4, pc}
 8000f4a:	f7ff ffe1 	bl	8000f10 <green_LED_toggle>
 8000f4e:	2300      	movs	r3, #0
 8000f50:	8023      	strh	r3, [r4, #0]
 8000f52:	e7f3      	b.n	8000f3c <SysTick_Handler+0x10>
 8000f54:	200002b8 	.word	0x200002b8
 8000f58:	200000ec 	.word	0x200000ec

08000f5c <clock_init>:
 8000f5c:	2180      	movs	r1, #128	; 0x80
 8000f5e:	4b0d      	ldr	r3, [pc, #52]	; (8000f94 <clock_init+0x38>)
 8000f60:	4a0d      	ldr	r2, [pc, #52]	; (8000f98 <clock_init+0x3c>)
 8000f62:	00c9      	lsls	r1, r1, #3
 8000f64:	601a      	str	r2, [r3, #0]
 8000f66:	4a0d      	ldr	r2, [pc, #52]	; (8000f9c <clock_init+0x40>)
 8000f68:	4b0d      	ldr	r3, [pc, #52]	; (8000fa0 <clock_init+0x44>)
 8000f6a:	60d3      	str	r3, [r2, #12]
 8000f6c:	4b0d      	ldr	r3, [pc, #52]	; (8000fa4 <clock_init+0x48>)
 8000f6e:	6013      	str	r3, [r2, #0]
 8000f70:	6813      	ldr	r3, [r2, #0]
 8000f72:	420b      	tst	r3, r1
 8000f74:	d0fc      	beq.n	8000f70 <clock_init+0x14>
 8000f76:	2302      	movs	r3, #2
 8000f78:	2107      	movs	r1, #7
 8000f7a:	6093      	str	r3, [r2, #8]
 8000f7c:	4a07      	ldr	r2, [pc, #28]	; (8000f9c <clock_init+0x40>)
 8000f7e:	6893      	ldr	r3, [r2, #8]
 8000f80:	400b      	ands	r3, r1
 8000f82:	2b02      	cmp	r3, #2
 8000f84:	d1fb      	bne.n	8000f7e <clock_init+0x22>
 8000f86:	2101      	movs	r1, #1
 8000f88:	6c13      	ldr	r3, [r2, #64]	; 0x40
 8000f8a:	430b      	orrs	r3, r1
 8000f8c:	6413      	str	r3, [r2, #64]	; 0x40
 8000f8e:	233f      	movs	r3, #63	; 0x3f
 8000f90:	6353      	str	r3, [r2, #52]	; 0x34
 8000f92:	4770      	bx	lr
 8000f94:	40022000 	.word	0x40022000
 8000f98:	00000302 	.word	0x00000302
 8000f9c:	40021000 	.word	0x40021000
 8000fa0:	30030802 	.word	0x30030802
 8000fa4:	01000100 	.word	0x01000100

08000fa8 <processCommand>:
 8000fa8:	b5f0      	push	{r4, r5, r6, r7, lr}
 8000faa:	2600      	movs	r6, #0
 8000fac:	2700      	movs	r7, #0
 8000fae:	0004      	movs	r4, r0
 8000fb0:	487e      	ldr	r0, [pc, #504]	; (80011ac <processCommand+0x204>)
 8000fb2:	b087      	sub	sp, #28
 8000fb4:	7803      	ldrb	r3, [r0, #0]
 8000fb6:	0015      	movs	r5, r2
 8000fb8:	9604      	str	r6, [sp, #16]
 8000fba:	9705      	str	r7, [sp, #20]
 8000fbc:	42a3      	cmp	r3, r4
 8000fbe:	d009      	beq.n	8000fd4 <processCommand+0x2c>
 8000fc0:	2cff      	cmp	r4, #255	; 0xff
 8000fc2:	d001      	beq.n	8000fc8 <processCommand+0x20>
 8000fc4:	b007      	add	sp, #28
 8000fc6:	bdf0      	pop	{r4, r5, r6, r7, pc}
 8000fc8:	2916      	cmp	r1, #22
 8000fca:	d8fb      	bhi.n	8000fc4 <processCommand+0x1c>
 8000fcc:	4a78      	ldr	r2, [pc, #480]	; (80011b0 <processCommand+0x208>)
 8000fce:	0089      	lsls	r1, r1, #2
 8000fd0:	5853      	ldr	r3, [r2, r1]
 8000fd2:	469f      	mov	pc, r3
 8000fd4:	2916      	cmp	r1, #22
 8000fd6:	d8f5      	bhi.n	8000fc4 <processCommand+0x1c>
 8000fd8:	4b76      	ldr	r3, [pc, #472]	; (80011b4 <processCommand+0x20c>)
 8000fda:	0089      	lsls	r1, r1, #2
 8000fdc:	585b      	ldr	r3, [r3, r1]
 8000fde:	469f      	mov	pc, r3
 8000fe0:	f000 fafe 	bl	80015e0 <enable_mosfets>
 8000fe4:	2cff      	cmp	r4, #255	; 0xff
 8000fe6:	d0ed      	beq.n	8000fc4 <processCommand+0x1c>
 8000fe8:	2103      	movs	r1, #3
 8000fea:	4873      	ldr	r0, [pc, #460]	; (80011b8 <processCommand+0x210>)
 8000fec:	f7ff fc46 	bl	800087c <rs485_transmit>
 8000ff0:	e7e8      	b.n	8000fc4 <processCommand+0x1c>
 8000ff2:	f000 fafb 	bl	80015ec <disable_mosfets>
 8000ff6:	2cff      	cmp	r4, #255	; 0xff
 8000ff8:	d1f6      	bne.n	8000fe8 <processCommand+0x40>
 8000ffa:	e7e3      	b.n	8000fc4 <processCommand+0x1c>
 8000ffc:	2cff      	cmp	r4, #255	; 0xff
 8000ffe:	d0e1      	beq.n	8000fc4 <processCommand+0x1c>
 8001000:	a802      	add	r0, sp, #8
 8001002:	f001 f93b 	bl	800227c <get_motor_status>
 8001006:	2103      	movs	r1, #3
 8001008:	486c      	ldr	r0, [pc, #432]	; (80011bc <processCommand+0x214>)
 800100a:	f7ff fc37 	bl	800087c <rs485_transmit>
 800100e:	2105      	movs	r1, #5
 8001010:	a802      	add	r0, sp, #8
 8001012:	f7ff fc33 	bl	800087c <rs485_transmit>
 8001016:	e7d5      	b.n	8000fc4 <processCommand+0x1c>
 8001018:	f000 fa9c 	bl	8001554 <get_microsecond_time>
 800101c:	9002      	str	r0, [sp, #8]
 800101e:	9103      	str	r1, [sp, #12]
 8001020:	f001 f8aa 	bl	8002178 <get_desired_position>
 8001024:	f001 f8a2 	bl	800216c <get_max_velocity>
 8001028:	2cff      	cmp	r4, #255	; 0xff
 800102a:	d0cb      	beq.n	8000fc4 <processCommand+0x1c>
 800102c:	e7dc      	b.n	8000fe8 <processCommand+0x40>
 800102e:	6828      	ldr	r0, [r5, #0]
 8001030:	2800      	cmp	r0, #0
 8001032:	dd00      	ble.n	8001036 <processCommand+0x8e>
 8001034:	2001      	movs	r0, #1
 8001036:	f001 f893 	bl	8002160 <set_max_velocity>
 800103a:	2cff      	cmp	r4, #255	; 0xff
 800103c:	d0c2      	beq.n	8000fc4 <processCommand+0x1c>
 800103e:	e7d3      	b.n	8000fe8 <processCommand+0x40>
 8001040:	4b5f      	ldr	r3, [pc, #380]	; (80011c0 <processCommand+0x218>)
 8001042:	6829      	ldr	r1, [r5, #0]
 8001044:	681a      	ldr	r2, [r3, #0]
 8001046:	428a      	cmp	r2, r1
 8001048:	d1bc      	bne.n	8000fc4 <processCommand+0x1c>
 800104a:	685b      	ldr	r3, [r3, #4]
 800104c:	686a      	ldr	r2, [r5, #4]
 800104e:	4293      	cmp	r3, r2
 8001050:	d1b8      	bne.n	8000fc4 <processCommand+0x1c>
 8001052:	7a2b      	ldrb	r3, [r5, #8]
 8001054:	7003      	strb	r3, [r0, #0]
 8001056:	e7b5      	b.n	8000fc4 <processCommand+0x1c>
 8001058:	882b      	ldrh	r3, [r5, #0]
 800105a:	1c18      	adds	r0, r3, #0
 800105c:	2b00      	cmp	r3, #0
 800105e:	d000      	beq.n	8001062 <processCommand+0xba>
 8001060:	2001      	movs	r0, #1
 8001062:	b280      	uxth	r0, r0
 8001064:	f001 f88e 	bl	8002184 <set_max_acceleration>
 8001068:	2cff      	cmp	r4, #255	; 0xff
 800106a:	d0ab      	beq.n	8000fc4 <processCommand+0x1c>
 800106c:	e7bc      	b.n	8000fe8 <processCommand+0x40>
 800106e:	2cff      	cmp	r4, #255	; 0xff
 8001070:	d0a8      	beq.n	8000fc4 <processCommand+0x1c>
 8001072:	f000 fa6f 	bl	8001554 <get_microsecond_time>
 8001076:	9002      	str	r0, [sp, #8]
 8001078:	9103      	str	r1, [sp, #12]
 800107a:	2103      	movs	r1, #3
 800107c:	4851      	ldr	r0, [pc, #324]	; (80011c4 <processCommand+0x21c>)
 800107e:	f7ff fbfd 	bl	800087c <rs485_transmit>
 8001082:	2106      	movs	r1, #6
 8001084:	a802      	add	r0, sp, #8
 8001086:	f7ff fbf9 	bl	800087c <rs485_transmit>
 800108a:	e79b      	b.n	8000fc4 <processCommand+0x1c>
 800108c:	2cff      	cmp	r4, #255	; 0xff
 800108e:	d099      	beq.n	8000fc4 <processCommand+0x1c>
 8001090:	f001 f8d8 	bl	8002244 <get_actual_motor_position>
 8001094:	9002      	str	r0, [sp, #8]
 8001096:	2103      	movs	r1, #3
 8001098:	484b      	ldr	r0, [pc, #300]	; (80011c8 <processCommand+0x220>)
 800109a:	f7ff fbef 	bl	800087c <rs485_transmit>
 800109e:	2104      	movs	r1, #4
 80010a0:	a802      	add	r0, sp, #8
 80010a2:	f7ff fbeb 	bl	800087c <rs485_transmit>
 80010a6:	e78d      	b.n	8000fc4 <processCommand+0x1c>
 80010a8:	cd03      	ldmia	r5!, {r0, r1}
 80010aa:	f000 fd27 	bl	8001afc <add_to_queue>
 80010ae:	2cff      	cmp	r4, #255	; 0xff
 80010b0:	d100      	bne.n	80010b4 <processCommand+0x10c>
 80010b2:	e787      	b.n	8000fc4 <processCommand+0x1c>
 80010b4:	e798      	b.n	8000fe8 <processCommand+0x40>
 80010b6:	f000 ffff 	bl	80020b8 <get_update_frequency>
 80010ba:	9002      	str	r0, [sp, #8]
 80010bc:	2cff      	cmp	r4, #255	; 0xff
 80010be:	d100      	bne.n	80010c2 <processCommand+0x11a>
 80010c0:	e780      	b.n	8000fc4 <processCommand+0x1c>
 80010c2:	e7e8      	b.n	8001096 <processCommand+0xee>
 80010c4:	f000 fb06 	bl	80016d4 <start_go_to_closed_loop_mode>
 80010c8:	2cff      	cmp	r4, #255	; 0xff
 80010ca:	d100      	bne.n	80010ce <processCommand+0x126>
 80010cc:	e77a      	b.n	8000fc4 <processCommand+0x1c>
 80010ce:	e78b      	b.n	8000fe8 <processCommand+0x40>
 80010d0:	2cff      	cmp	r4, #255	; 0xff
 80010d2:	d100      	bne.n	80010d6 <processCommand+0x12e>
 80010d4:	e776      	b.n	8000fc4 <processCommand+0x1c>
 80010d6:	2102      	movs	r1, #2
 80010d8:	483c      	ldr	r0, [pc, #240]	; (80011cc <processCommand+0x224>)
 80010da:	f7ff fbcf 	bl	800087c <rs485_transmit>
 80010de:	230c      	movs	r3, #12
 80010e0:	a802      	add	r0, sp, #8
 80010e2:	7003      	strb	r3, [r0, #0]
 80010e4:	2101      	movs	r1, #1
 80010e6:	f7ff fbc9 	bl	800087c <rs485_transmit>
 80010ea:	210c      	movs	r1, #12
 80010ec:	4838      	ldr	r0, [pc, #224]	; (80011d0 <processCommand+0x228>)
 80010ee:	f7ff fbc5 	bl	800087c <rs485_transmit>
 80010f2:	e767      	b.n	8000fc4 <processCommand+0x1c>
 80010f4:	f000 fa74 	bl	80015e0 <enable_mosfets>
 80010f8:	2001      	movs	r0, #1
 80010fa:	f000 fa7f 	bl	80015fc <start_calibration>
 80010fe:	e761      	b.n	8000fc4 <processCommand+0x1c>
 8001100:	782d      	ldrb	r5, [r5, #0]
 8001102:	2cff      	cmp	r4, #255	; 0xff
 8001104:	d003      	beq.n	800110e <processCommand+0x166>
 8001106:	2103      	movs	r1, #3
 8001108:	482b      	ldr	r0, [pc, #172]	; (80011b8 <processCommand+0x210>)
 800110a:	f7ff fbb7 	bl	800087c <rs485_transmit>
 800110e:	0028      	movs	r0, r5
 8001110:	f000 fb86 	bl	8001820 <start_capture>
 8001114:	e756      	b.n	8000fc4 <processCommand+0x1c>
 8001116:	f001 f841 	bl	800219c <reset_time>
 800111a:	2cff      	cmp	r4, #255	; 0xff
 800111c:	d100      	bne.n	8001120 <processCommand+0x178>
 800111e:	e751      	b.n	8000fc4 <processCommand+0x1c>
 8001120:	e762      	b.n	8000fe8 <processCommand+0x40>
 8001122:	2063      	movs	r0, #99	; 0x63
 8001124:	f001 fc7e 	bl	8002a24 <get_random_number>
 8001128:	4b2a      	ldr	r3, [pc, #168]	; (80011d4 <processCommand+0x22c>)
 800112a:	8018      	strh	r0, [r3, #0]
 800112c:	e74a      	b.n	8000fc4 <processCommand+0x1c>
 800112e:	2206      	movs	r2, #6
 8001130:	0029      	movs	r1, r5
 8001132:	a804      	add	r0, sp, #16
 8001134:	f001 fcd6 	bl	8002ae4 <memcpy>
 8001138:	9804      	ldr	r0, [sp, #16]
 800113a:	9905      	ldr	r1, [sp, #20]
 800113c:	f7ff fbde 	bl	80008fc <time_sync>
 8001140:	9002      	str	r0, [sp, #8]
 8001142:	f7ff fc07 	bl	8000954 <get_clock_calibration_value>
 8001146:	466b      	mov	r3, sp
 8001148:	1d9d      	adds	r5, r3, #6
 800114a:	80d8      	strh	r0, [r3, #6]
 800114c:	2cff      	cmp	r4, #255	; 0xff
 800114e:	d100      	bne.n	8001152 <processCommand+0x1aa>
 8001150:	e738      	b.n	8000fc4 <processCommand+0x1c>
 8001152:	2103      	movs	r1, #3
 8001154:	481b      	ldr	r0, [pc, #108]	; (80011c4 <processCommand+0x21c>)
 8001156:	f7ff fb91 	bl	800087c <rs485_transmit>
 800115a:	a802      	add	r0, sp, #8
 800115c:	2104      	movs	r1, #4
 800115e:	f7ff fb8d 	bl	800087c <rs485_transmit>
 8001162:	2102      	movs	r1, #2
 8001164:	0028      	movs	r0, r5
 8001166:	f7ff fb89 	bl	800087c <rs485_transmit>
 800116a:	e72b      	b.n	8000fc4 <processCommand+0x1c>
 800116c:	f000 fcec 	bl	8001b48 <get_n_items_in_queue>
 8001170:	ad02      	add	r5, sp, #8
 8001172:	7028      	strb	r0, [r5, #0]
 8001174:	2cff      	cmp	r4, #255	; 0xff
 8001176:	d100      	bne.n	800117a <processCommand+0x1d2>
 8001178:	e724      	b.n	8000fc4 <processCommand+0x1c>
 800117a:	2103      	movs	r1, #3
 800117c:	4816      	ldr	r0, [pc, #88]	; (80011d8 <processCommand+0x230>)
 800117e:	f7ff fb7d 	bl	800087c <rs485_transmit>
 8001182:	2101      	movs	r1, #1
 8001184:	0028      	movs	r0, r5
 8001186:	f7ff fb79 	bl	800087c <rs485_transmit>
 800118a:	e71b      	b.n	8000fc4 <processCommand+0x1c>
 800118c:	f001 f830 	bl	80021f0 <emergency_stop>
 8001190:	2cff      	cmp	r4, #255	; 0xff
 8001192:	d100      	bne.n	8001196 <processCommand+0x1ee>
 8001194:	e716      	b.n	8000fc4 <processCommand+0x1c>
 8001196:	e727      	b.n	8000fe8 <processCommand+0x40>
 8001198:	f000 ff92 	bl	80020c0 <zero_position_and_hall_sensor>
 800119c:	2cff      	cmp	r4, #255	; 0xff
 800119e:	d100      	bne.n	80011a2 <processCommand+0x1fa>
 80011a0:	e710      	b.n	8000fc4 <processCommand+0x1c>
 80011a2:	e721      	b.n	8000fe8 <processCommand+0x40>
 80011a4:	f000 fa22 	bl	80015ec <disable_mosfets>
 80011a8:	e70c      	b.n	8000fc4 <processCommand+0x1c>
 80011aa:	46c0      	nop			; (mov r8, r8)
 80011ac:	20000000 	.word	0x20000000
 80011b0:	080033a0 	.word	0x080033a0
 80011b4:	080033fc 	.word	0x080033fc
 80011b8:	08003358 	.word	0x08003358
 80011bc:	08003398 	.word	0x08003398
 80011c0:	200002a0 	.word	0x200002a0
 80011c4:	0800338c 	.word	0x0800338c
 80011c8:	08003394 	.word	0x08003394
 80011cc:	0800339c 	.word	0x0800339c
 80011d0:	2000000c 	.word	0x2000000c
 80011d4:	2000000a 	.word	0x2000000a
 80011d8:	08003390 	.word	0x08003390

080011dc <print_start_message>:
 80011dc:	b500      	push	{lr}
 80011de:	210e      	movs	r1, #14
 80011e0:	b0b3      	sub	sp, #204	; 0xcc
 80011e2:	4809      	ldr	r0, [pc, #36]	; (8001208 <print_start_message+0x2c>)
 80011e4:	f7ff fc2e 	bl	8000a44 <transmit>
 80011e8:	4a08      	ldr	r2, [pc, #32]	; (800120c <print_start_message+0x30>)
 80011ea:	4909      	ldr	r1, [pc, #36]	; (8001210 <print_start_message+0x34>)
 80011ec:	6813      	ldr	r3, [r2, #0]
 80011ee:	4668      	mov	r0, sp
 80011f0:	6852      	ldr	r2, [r2, #4]
 80011f2:	f001 fc89 	bl	8002b08 <siprintf>
 80011f6:	4668      	mov	r0, sp
 80011f8:	f7fe ff82 	bl	8000100 <strlen>
 80011fc:	b2c1      	uxtb	r1, r0
 80011fe:	4668      	mov	r0, sp
 8001200:	f7ff fc20 	bl	8000a44 <transmit>
 8001204:	b033      	add	sp, #204	; 0xcc
 8001206:	bd00      	pop	{pc}
 8001208:	080034f4 	.word	0x080034f4
 800120c:	200002a0 	.word	0x200002a0
 8001210:	08003504 	.word	0x08003504

08001214 <main>:
 8001214:	b5f8      	push	{r3, r4, r5, r6, r7, lr}
 8001216:	46de      	mov	lr, fp
 8001218:	4657      	mov	r7, sl
 800121a:	464e      	mov	r6, r9
 800121c:	4645      	mov	r5, r8
 800121e:	b5e0      	push	{r5, r6, r7, lr}
 8001220:	f7ff fe9c 	bl	8000f5c <clock_init>
 8001224:	21c0      	movs	r1, #192	; 0xc0
 8001226:	4a8b      	ldr	r2, [pc, #556]	; (8001454 <main+0x240>)
 8001228:	4b8b      	ldr	r3, [pc, #556]	; (8001458 <main+0x244>)
 800122a:	488c      	ldr	r0, [pc, #560]	; (800145c <main+0x248>)
 800122c:	6053      	str	r3, [r2, #4]
 800122e:	6a03      	ldr	r3, [r0, #32]
 8001230:	0609      	lsls	r1, r1, #24
 8001232:	021b      	lsls	r3, r3, #8
 8001234:	0a1b      	lsrs	r3, r3, #8
 8001236:	430b      	orrs	r3, r1
 8001238:	6203      	str	r3, [r0, #32]
 800123a:	2107      	movs	r1, #7
 800123c:	2300      	movs	r3, #0
 800123e:	6093      	str	r3, [r2, #8]
 8001240:	6011      	str	r1, [r2, #0]
 8001242:	21a0      	movs	r1, #160	; 0xa0
 8001244:	4a86      	ldr	r2, [pc, #536]	; (8001460 <main+0x24c>)
 8001246:	05c9      	lsls	r1, r1, #23
 8001248:	600a      	str	r2, [r1, #0]
 800124a:	4a86      	ldr	r2, [pc, #536]	; (8001464 <main+0x250>)
 800124c:	2040      	movs	r0, #64	; 0x40
 800124e:	604a      	str	r2, [r1, #4]
 8001250:	2201      	movs	r2, #1
 8001252:	4252      	negs	r2, r2
 8001254:	608a      	str	r2, [r1, #8]
 8001256:	60c8      	str	r0, [r1, #12]
 8001258:	4983      	ldr	r1, [pc, #524]	; (8001468 <main+0x254>)
 800125a:	4884      	ldr	r0, [pc, #528]	; (800146c <main+0x258>)
 800125c:	6008      	str	r0, [r1, #0]
 800125e:	20b0      	movs	r0, #176	; 0xb0
 8001260:	6048      	str	r0, [r1, #4]
 8001262:	2080      	movs	r0, #128	; 0x80
 8001264:	01c0      	lsls	r0, r0, #7
 8001266:	608a      	str	r2, [r1, #8]
 8001268:	60c8      	str	r0, [r1, #12]
 800126a:	4881      	ldr	r0, [pc, #516]	; (8001470 <main+0x25c>)
 800126c:	4981      	ldr	r1, [pc, #516]	; (8001474 <main+0x260>)
 800126e:	6008      	str	r0, [r1, #0]
 8001270:	604b      	str	r3, [r1, #4]
 8001272:	608a      	str	r2, [r1, #8]
 8001274:	60cb      	str	r3, [r1, #12]
 8001276:	4980      	ldr	r1, [pc, #512]	; (8001478 <main+0x264>)
 8001278:	600a      	str	r2, [r1, #0]
 800127a:	604b      	str	r3, [r1, #4]
 800127c:	608a      	str	r2, [r1, #8]
 800127e:	60cb      	str	r3, [r1, #12]
 8001280:	f7ff fb6e 	bl	8000960 <debug_uart_init>
 8001284:	f7ff fa4c 	bl	8000720 <rs485_init>
 8001288:	f000 f92c 	bl	80014e4 <microsecond_clock_init>
 800128c:	f7ff f8c0 	bl	8000410 <adc_init>
 8001290:	f7ff f9f2 	bl	8000678 <pwm_init>
 8001294:	f001 f816 	bl	80022c4 <step_and_direction_init>
 8001298:	f001 fbbe 	bl	8002a18 <get_unique_id>
 800129c:	4b77      	ldr	r3, [pc, #476]	; (800147c <main+0x268>)
 800129e:	469b      	mov	fp, r3
 80012a0:	6018      	str	r0, [r3, #0]
 80012a2:	6059      	str	r1, [r3, #4]
 80012a4:	b662      	cpsie	i
 80012a6:	f7ff ff99 	bl	80011dc <print_start_message>
 80012aa:	2106      	movs	r1, #6
 80012ac:	4874      	ldr	r0, [pc, #464]	; (8001480 <main+0x26c>)
 80012ae:	f7ff fae5 	bl	800087c <rs485_transmit>
 80012b2:	4b74      	ldr	r3, [pc, #464]	; (8001484 <main+0x270>)
 80012b4:	4e74      	ldr	r6, [pc, #464]	; (8001488 <main+0x274>)
 80012b6:	469a      	mov	sl, r3
 80012b8:	4b74      	ldr	r3, [pc, #464]	; (800148c <main+0x278>)
 80012ba:	4c75      	ldr	r4, [pc, #468]	; (8001490 <main+0x27c>)
 80012bc:	4699      	mov	r9, r3
 80012be:	2300      	movs	r3, #0
 80012c0:	4698      	mov	r8, r3
 80012c2:	4d74      	ldr	r5, [pc, #464]	; (8001494 <main+0x280>)
 80012c4:	7833      	ldrb	r3, [r6, #0]
 80012c6:	2b00      	cmp	r3, #0
 80012c8:	d131      	bne.n	800132e <main+0x11a>
 80012ca:	2200      	movs	r2, #0
 80012cc:	5ea3      	ldrsh	r3, [r4, r2]
 80012ce:	2b00      	cmp	r3, #0
 80012d0:	db03      	blt.n	80012da <main+0xc6>
 80012d2:	d100      	bne.n	80012d6 <main+0xc2>
 80012d4:	e09a      	b.n	800140c <main+0x1f8>
 80012d6:	3b01      	subs	r3, #1
 80012d8:	8023      	strh	r3, [r4, #0]
 80012da:	f7ff fc9f 	bl	8000c1c <get_command_uart1>
 80012de:	2800      	cmp	r0, #0
 80012e0:	d013      	beq.n	800130a <main+0xf6>
 80012e2:	3845      	subs	r0, #69	; 0x45
 80012e4:	b2c0      	uxtb	r0, r0
 80012e6:	2835      	cmp	r0, #53	; 0x35
 80012e8:	d80f      	bhi.n	800130a <main+0xf6>
 80012ea:	4b6b      	ldr	r3, [pc, #428]	; (8001498 <main+0x284>)
 80012ec:	0080      	lsls	r0, r0, #2
 80012ee:	581b      	ldr	r3, [r3, r0]
 80012f0:	469f      	mov	pc, r3
 80012f2:	f000 fedb 	bl	80020ac <get_motor_control_mode>
 80012f6:	2801      	cmp	r0, #1
 80012f8:	d100      	bne.n	80012fc <main+0xe8>
 80012fa:	e0a2      	b.n	8001442 <main+0x22e>
 80012fc:	2001      	movs	r0, #1
 80012fe:	f000 fecf 	bl	80020a0 <set_motor_control_mode>
 8001302:	211d      	movs	r1, #29
 8001304:	4865      	ldr	r0, [pc, #404]	; (800149c <main+0x288>)
 8001306:	f7ff fb9d 	bl	8000a44 <transmit>
 800130a:	23a0      	movs	r3, #160	; 0xa0
 800130c:	05db      	lsls	r3, r3, #23
 800130e:	691b      	ldr	r3, [r3, #16]
 8001310:	049b      	lsls	r3, r3, #18
 8001312:	d41d      	bmi.n	8001350 <main+0x13c>
 8001314:	782b      	ldrb	r3, [r5, #0]
 8001316:	2b00      	cmp	r3, #0
 8001318:	d1d4      	bne.n	80012c4 <main+0xb0>
 800131a:	f000 f91b 	bl	8001554 <get_microsecond_time>
 800131e:	464b      	mov	r3, r9
 8001320:	6018      	str	r0, [r3, #0]
 8001322:	6059      	str	r1, [r3, #4]
 8001324:	2301      	movs	r3, #1
 8001326:	702b      	strb	r3, [r5, #0]
 8001328:	7833      	ldrb	r3, [r6, #0]
 800132a:	2b00      	cmp	r3, #0
 800132c:	d0cd      	beq.n	80012ca <main+0xb6>
 800132e:	4b5c      	ldr	r3, [pc, #368]	; (80014a0 <main+0x28c>)
 8001330:	4652      	mov	r2, sl
 8001332:	7819      	ldrb	r1, [r3, #0]
 8001334:	4b5b      	ldr	r3, [pc, #364]	; (80014a4 <main+0x290>)
 8001336:	7818      	ldrb	r0, [r3, #0]
 8001338:	f7ff fe36 	bl	8000fa8 <processCommand>
 800133c:	4643      	mov	r3, r8
 800133e:	7033      	strb	r3, [r6, #0]
 8001340:	e7c3      	b.n	80012ca <main+0xb6>
 8001342:	f000 febd 	bl	80020c0 <zero_position_and_hall_sensor>
 8001346:	23a0      	movs	r3, #160	; 0xa0
 8001348:	05db      	lsls	r3, r3, #23
 800134a:	691b      	ldr	r3, [r3, #16]
 800134c:	049b      	lsls	r3, r3, #18
 800134e:	d5e1      	bpl.n	8001314 <main+0x100>
 8001350:	782b      	ldrb	r3, [r5, #0]
 8001352:	2b00      	cmp	r3, #0
 8001354:	d0b6      	beq.n	80012c4 <main+0xb0>
 8001356:	4643      	mov	r3, r8
 8001358:	702b      	strb	r3, [r5, #0]
 800135a:	f000 f8fb 	bl	8001554 <get_microsecond_time>
 800135e:	464b      	mov	r3, r9
 8001360:	681b      	ldr	r3, [r3, #0]
 8001362:	1ac7      	subs	r7, r0, r3
 8001364:	4b50      	ldr	r3, [pc, #320]	; (80014a8 <main+0x294>)
 8001366:	429f      	cmp	r7, r3
 8001368:	d85b      	bhi.n	8001422 <main+0x20e>
 800136a:	21fa      	movs	r1, #250	; 0xfa
 800136c:	0089      	lsls	r1, r1, #2
 800136e:	428f      	cmp	r7, r1
 8001370:	d306      	bcc.n	8001380 <main+0x16c>
 8001372:	0038      	movs	r0, r7
 8001374:	f7fe fed6 	bl	8000124 <__udivsi3>
 8001378:	b281      	uxth	r1, r0
 800137a:	484c      	ldr	r0, [pc, #304]	; (80014ac <main+0x298>)
 800137c:	f7ff fbb6 	bl	8000aec <print_number>
 8001380:	4b4b      	ldr	r3, [pc, #300]	; (80014b0 <main+0x29c>)
 8001382:	429f      	cmp	r7, r3
 8001384:	d851      	bhi.n	800142a <main+0x216>
 8001386:	4b4b      	ldr	r3, [pc, #300]	; (80014b4 <main+0x2a0>)
 8001388:	429f      	cmp	r7, r3
 800138a:	d851      	bhi.n	8001430 <main+0x21c>
 800138c:	4b4a      	ldr	r3, [pc, #296]	; (80014b8 <main+0x2a4>)
 800138e:	429f      	cmp	r7, r3
 8001390:	d998      	bls.n	80012c4 <main+0xb0>
 8001392:	f000 f925 	bl	80015e0 <enable_mosfets>
 8001396:	21fa      	movs	r1, #250	; 0xfa
 8001398:	4a48      	ldr	r2, [pc, #288]	; (80014bc <main+0x2a8>)
 800139a:	4849      	ldr	r0, [pc, #292]	; (80014c0 <main+0x2ac>)
 800139c:	0089      	lsls	r1, r1, #2
 800139e:	f000 fbd9 	bl	8001b54 <add_trapazoid_move_to_queue>
 80013a2:	e78f      	b.n	80012c4 <main+0xb0>
 80013a4:	f000 fe82 	bl	80020ac <get_motor_control_mode>
 80013a8:	2802      	cmp	r0, #2
 80013aa:	d0a7      	beq.n	80012fc <main+0xe8>
 80013ac:	2002      	movs	r0, #2
 80013ae:	f000 fe77 	bl	80020a0 <set_motor_control_mode>
 80013b2:	211e      	movs	r1, #30
 80013b4:	4843      	ldr	r0, [pc, #268]	; (80014c4 <main+0x2b0>)
 80013b6:	f7ff fb45 	bl	8000a44 <transmit>
 80013ba:	e7a6      	b.n	800130a <main+0xf6>
 80013bc:	f000 fa4c 	bl	8001858 <print_position>
 80013c0:	f7ff fd76 	bl	8000eb0 <print_hall_position>
 80013c4:	f000 fa62 	bl	800188c <print_queue_stats>
 80013c8:	f000 fa76 	bl	80018b8 <print_current_movement>
 80013cc:	f000 fab4 	bl	8001938 <print_velocity>
 80013d0:	f000 fac8 	bl	8001964 <print_time_difference>
 80013d4:	e799      	b.n	800130a <main+0xf6>
 80013d6:	f000 fe41 	bl	800205c <decrease_motor_pwm_voltage>
 80013da:	e796      	b.n	800130a <main+0xf6>
 80013dc:	2000      	movs	r0, #0
 80013de:	f000 f90d 	bl	80015fc <start_calibration>
 80013e2:	e792      	b.n	800130a <main+0xf6>
 80013e4:	f000 fb76 	bl	8001ad4 <print_motor_current>
 80013e8:	e78f      	b.n	800130a <main+0xf6>
 80013ea:	f000 f8ff 	bl	80015ec <disable_mosfets>
 80013ee:	2112      	movs	r1, #18
 80013f0:	4835      	ldr	r0, [pc, #212]	; (80014c8 <main+0x2b4>)
 80013f2:	f7ff fb27 	bl	8000a44 <transmit>
 80013f6:	e788      	b.n	800130a <main+0xf6>
 80013f8:	f000 fe0e 	bl	8002018 <increase_motor_pwm_voltage>
 80013fc:	e785      	b.n	800130a <main+0xf6>
 80013fe:	f000 f8ef 	bl	80015e0 <enable_mosfets>
 8001402:	2111      	movs	r1, #17
 8001404:	4831      	ldr	r0, [pc, #196]	; (80014cc <main+0x2b8>)
 8001406:	f7ff fb1d 	bl	8000a44 <transmit>
 800140a:	e77e      	b.n	800130a <main+0xf6>
 800140c:	2103      	movs	r1, #3
 800140e:	4830      	ldr	r0, [pc, #192]	; (80014d0 <main+0x2bc>)
 8001410:	f7ff fa34 	bl	800087c <rs485_transmit>
 8001414:	2108      	movs	r1, #8
 8001416:	4658      	mov	r0, fp
 8001418:	f7ff fa30 	bl	800087c <rs485_transmit>
 800141c:	2200      	movs	r2, #0
 800141e:	5ea3      	ldrsh	r3, [r4, r2]
 8001420:	e759      	b.n	80012d6 <main+0xc2>
 8001422:	492c      	ldr	r1, [pc, #176]	; (80014d4 <main+0x2c0>)
 8001424:	4821      	ldr	r0, [pc, #132]	; (80014ac <main+0x298>)
 8001426:	f7ff fb61 	bl	8000aec <print_number>
 800142a:	f000 f953 	bl	80016d4 <start_go_to_closed_loop_mode>
 800142e:	e749      	b.n	80012c4 <main+0xb0>
 8001430:	f000 f8d6 	bl	80015e0 <enable_mosfets>
 8001434:	21fa      	movs	r1, #250	; 0xfa
 8001436:	4a28      	ldr	r2, [pc, #160]	; (80014d8 <main+0x2c4>)
 8001438:	4828      	ldr	r0, [pc, #160]	; (80014dc <main+0x2c8>)
 800143a:	0089      	lsls	r1, r1, #2
 800143c:	f000 fb8a 	bl	8001b54 <add_trapazoid_move_to_queue>
 8001440:	e740      	b.n	80012c4 <main+0xb0>
 8001442:	2000      	movs	r0, #0
 8001444:	f000 fe2c 	bl	80020a0 <set_motor_control_mode>
 8001448:	211b      	movs	r1, #27
 800144a:	4825      	ldr	r0, [pc, #148]	; (80014e0 <main+0x2cc>)
 800144c:	f7ff fafa 	bl	8000a44 <transmit>
 8001450:	e75b      	b.n	800130a <main+0xf6>
 8001452:	46c0      	nop			; (mov r8, r8)
 8001454:	e000e010 	.word	0xe000e010
 8001458:	0009c400 	.word	0x0009c400
 800145c:	e000ed00 	.word	0xe000ed00
 8001460:	f1aeffab 	.word	0xf1aeffab
 8001464:	000080f9 	.word	0x000080f9
 8001468:	50000400 	.word	0x50000400
 800146c:	ffffa0bf 	.word	0xffffa0bf
 8001470:	5fffffff 	.word	0x5fffffff
 8001474:	50000800 	.word	0x50000800
 8001478:	50000c00 	.word	0x50000c00
 800147c:	200002a0 	.word	0x200002a0
 8001480:	080034fc 	.word	0x080034fc
 8001484:	2000018c 	.word	0x2000018c
 8001488:	200000f1 	.word	0x200000f1
 800148c:	200002b0 	.word	0x200002b0
 8001490:	2000000a 	.word	0x2000000a
 8001494:	200002a8 	.word	0x200002a8
 8001498:	0800351c 	.word	0x0800351c
 800149c:	080034a0 	.word	0x080034a0
 80014a0:	200000f0 	.word	0x200000f0
 80014a4:	200000f3 	.word	0x200000f3
 80014a8:	004c4b40 	.word	0x004c4b40
 80014ac:	080034e0 	.word	0x080034e0
 80014b0:	001e847f 	.word	0x001e847f
 80014b4:	000493df 	.word	0x000493df
 80014b8:	0000c34f 	.word	0x0000c34f
 80014bc:	fffcf2c0 	.word	0xfffcf2c0
 80014c0:	ffec5000 	.word	0xffec5000
 80014c4:	080034c0 	.word	0x080034c0
 80014c8:	08003470 	.word	0x08003470
 80014cc:	0800345c 	.word	0x0800345c
 80014d0:	08003458 	.word	0x08003458
 80014d4:	00001388 	.word	0x00001388
 80014d8:	00030d40 	.word	0x00030d40
 80014dc:	0013b000 	.word	0x0013b000
 80014e0:	08003484 	.word	0x08003484

080014e4 <microsecond_clock_init>:
 80014e4:	2102      	movs	r1, #2
 80014e6:	4a0e      	ldr	r2, [pc, #56]	; (8001520 <microsecond_clock_init+0x3c>)
 80014e8:	20ff      	movs	r0, #255	; 0xff
 80014ea:	6bd3      	ldr	r3, [r2, #60]	; 0x3c
 80014ec:	430b      	orrs	r3, r1
 80014ee:	63d3      	str	r3, [r2, #60]	; 0x3c
 80014f0:	223f      	movs	r2, #63	; 0x3f
 80014f2:	4b0c      	ldr	r3, [pc, #48]	; (8001524 <microsecond_clock_init+0x40>)
 80014f4:	3901      	subs	r1, #1
 80014f6:	629a      	str	r2, [r3, #40]	; 0x28
 80014f8:	3a40      	subs	r2, #64	; 0x40
 80014fa:	62da      	str	r2, [r3, #44]	; 0x2c
 80014fc:	4a0a      	ldr	r2, [pc, #40]	; (8001528 <microsecond_clock_init+0x44>)
 80014fe:	60d9      	str	r1, [r3, #12]
 8001500:	601a      	str	r2, [r3, #0]
 8001502:	695a      	ldr	r2, [r3, #20]
 8001504:	430a      	orrs	r2, r1
 8001506:	21c4      	movs	r1, #196	; 0xc4
 8001508:	615a      	str	r2, [r3, #20]
 800150a:	4a08      	ldr	r2, [pc, #32]	; (800152c <microsecond_clock_init+0x48>)
 800150c:	0089      	lsls	r1, r1, #2
 800150e:	5853      	ldr	r3, [r2, r1]
 8001510:	4383      	bics	r3, r0
 8001512:	38bf      	subs	r0, #191	; 0xbf
 8001514:	4303      	orrs	r3, r0
 8001516:	5053      	str	r3, [r2, r1]
 8001518:	2380      	movs	r3, #128	; 0x80
 800151a:	025b      	lsls	r3, r3, #9
 800151c:	6013      	str	r3, [r2, #0]
 800151e:	4770      	bx	lr
 8001520:	40021000 	.word	0x40021000
 8001524:	40000400 	.word	0x40000400
 8001528:	00000801 	.word	0x00000801
 800152c:	e000e100 	.word	0xe000e100

08001530 <TIM3_IRQHandler>:
 8001530:	b672      	cpsid	i
 8001532:	4b06      	ldr	r3, [pc, #24]	; (800154c <TIM3_IRQHandler+0x1c>)
 8001534:	6a5b      	ldr	r3, [r3, #36]	; 0x24
 8001536:	2b00      	cmp	r3, #0
 8001538:	da03      	bge.n	8001542 <TIM3_IRQHandler+0x12>
 800153a:	4a05      	ldr	r2, [pc, #20]	; (8001550 <TIM3_IRQHandler+0x20>)
 800153c:	6813      	ldr	r3, [r2, #0]
 800153e:	3301      	adds	r3, #1
 8001540:	6013      	str	r3, [r2, #0]
 8001542:	2200      	movs	r2, #0
 8001544:	4b01      	ldr	r3, [pc, #4]	; (800154c <TIM3_IRQHandler+0x1c>)
 8001546:	611a      	str	r2, [r3, #16]
 8001548:	b662      	cpsie	i
 800154a:	4770      	bx	lr
 800154c:	40000400 	.word	0x40000400
 8001550:	200002c8 	.word	0x200002c8

08001554 <get_microsecond_time>:
 8001554:	b510      	push	{r4, lr}
 8001556:	b082      	sub	sp, #8
 8001558:	b672      	cpsid	i
 800155a:	2100      	movs	r1, #0
 800155c:	466c      	mov	r4, sp
 800155e:	4a17      	ldr	r2, [pc, #92]	; (80015bc <get_microsecond_time+0x68>)
 8001560:	9101      	str	r1, [sp, #4]
 8001562:	6a53      	ldr	r3, [r2, #36]	; 0x24
 8001564:	b298      	uxth	r0, r3
 8001566:	8020      	strh	r0, [r4, #0]
 8001568:	2b00      	cmp	r3, #0
 800156a:	db21      	blt.n	80015b0 <get_microsecond_time+0x5c>
 800156c:	4b14      	ldr	r3, [pc, #80]	; (80015c0 <get_microsecond_time+0x6c>)
 800156e:	681a      	ldr	r2, [r3, #0]
 8001570:	466b      	mov	r3, sp
 8001572:	0411      	lsls	r1, r2, #16
 8001574:	0c09      	lsrs	r1, r1, #16
 8001576:	4c13      	ldr	r4, [pc, #76]	; (80015c4 <get_microsecond_time+0x70>)
 8001578:	8858      	ldrh	r0, [r3, #2]
 800157a:	8059      	strh	r1, [r3, #2]
 800157c:	8899      	ldrh	r1, [r3, #4]
 800157e:	0c12      	lsrs	r2, r2, #16
 8001580:	6861      	ldr	r1, [r4, #4]
 8001582:	809a      	strh	r2, [r3, #4]
 8001584:	9a00      	ldr	r2, [sp, #0]
 8001586:	9b01      	ldr	r3, [sp, #4]
 8001588:	4299      	cmp	r1, r3
 800158a:	d80c      	bhi.n	80015a6 <get_microsecond_time+0x52>
 800158c:	d008      	beq.n	80015a0 <get_microsecond_time+0x4c>
 800158e:	9a00      	ldr	r2, [sp, #0]
 8001590:	9b01      	ldr	r3, [sp, #4]
 8001592:	6022      	str	r2, [r4, #0]
 8001594:	6063      	str	r3, [r4, #4]
 8001596:	b662      	cpsie	i
 8001598:	9800      	ldr	r0, [sp, #0]
 800159a:	9901      	ldr	r1, [sp, #4]
 800159c:	b002      	add	sp, #8
 800159e:	bd10      	pop	{r4, pc}
 80015a0:	6821      	ldr	r1, [r4, #0]
 80015a2:	4291      	cmp	r1, r2
 80015a4:	d9f3      	bls.n	800158e <get_microsecond_time+0x3a>
 80015a6:	2101      	movs	r1, #1
 80015a8:	4807      	ldr	r0, [pc, #28]	; (80015c8 <get_microsecond_time+0x74>)
 80015aa:	f7ff fb41 	bl	8000c30 <fatal_error>
 80015ae:	e7ee      	b.n	800158e <get_microsecond_time+0x3a>
 80015b0:	4b03      	ldr	r3, [pc, #12]	; (80015c0 <get_microsecond_time+0x6c>)
 80015b2:	6818      	ldr	r0, [r3, #0]
 80015b4:	3001      	adds	r0, #1
 80015b6:	6018      	str	r0, [r3, #0]
 80015b8:	6111      	str	r1, [r2, #16]
 80015ba:	e7d8      	b.n	800156e <get_microsecond_time+0x1a>
 80015bc:	40000400 	.word	0x40000400
 80015c0:	200002c8 	.word	0x200002c8
 80015c4:	200002c0 	.word	0x200002c0
 80015c8:	080035f4 	.word	0x080035f4

080015cc <reset_microsecond_time>:
 80015cc:	2300      	movs	r3, #0
 80015ce:	4a02      	ldr	r2, [pc, #8]	; (80015d8 <reset_microsecond_time+0xc>)
 80015d0:	6253      	str	r3, [r2, #36]	; 0x24
 80015d2:	4a02      	ldr	r2, [pc, #8]	; (80015dc <reset_microsecond_time+0x10>)
 80015d4:	6013      	str	r3, [r2, #0]
 80015d6:	4770      	bx	lr
 80015d8:	40000400 	.word	0x40000400
 80015dc:	200002c8 	.word	0x200002c8

080015e0 <enable_mosfets>:
 80015e0:	23a0      	movs	r3, #160	; 0xa0
 80015e2:	2280      	movs	r2, #128	; 0x80
 80015e4:	05db      	lsls	r3, r3, #23
 80015e6:	0152      	lsls	r2, r2, #5
 80015e8:	619a      	str	r2, [r3, #24]
 80015ea:	4770      	bx	lr

080015ec <disable_mosfets>:
 80015ec:	23a0      	movs	r3, #160	; 0xa0
 80015ee:	2280      	movs	r2, #128	; 0x80
 80015f0:	05db      	lsls	r3, r3, #23
 80015f2:	0552      	lsls	r2, r2, #21
 80015f4:	619a      	str	r2, [r3, #24]
 80015f6:	4770      	bx	lr

080015f8 <get_mosfets_enabled>:
 80015f8:	2000      	movs	r0, #0
 80015fa:	4770      	bx	lr

080015fc <start_calibration>:
 80015fc:	b5f0      	push	{r4, r5, r6, r7, lr}
 80015fe:	46ce      	mov	lr, r9
 8001600:	4647      	mov	r7, r8
 8001602:	b580      	push	{r7, lr}
 8001604:	0004      	movs	r4, r0
 8001606:	b0b5      	sub	sp, #212	; 0xd4
 8001608:	2800      	cmp	r0, #0
 800160a:	d135      	bne.n	8001678 <start_calibration+0x7c>
 800160c:	2201      	movs	r2, #1
 800160e:	2700      	movs	r7, #0
 8001610:	2000      	movs	r0, #0
 8001612:	2100      	movs	r1, #0
 8001614:	4e23      	ldr	r6, [pc, #140]	; (80016a4 <start_calibration+0xa8>)
 8001616:	4690      	mov	r8, r2
 8001618:	68f3      	ldr	r3, [r6, #12]
 800161a:	4d23      	ldr	r5, [pc, #140]	; (80016a8 <start_calibration+0xac>)
 800161c:	4393      	bics	r3, r2
 800161e:	60f3      	str	r3, [r6, #12]
 8001620:	4b22      	ldr	r3, [pc, #136]	; (80016ac <start_calibration+0xb0>)
 8001622:	701f      	strb	r7, [r3, #0]
 8001624:	4b22      	ldr	r3, [pc, #136]	; (80016b0 <start_calibration+0xb4>)
 8001626:	701f      	strb	r7, [r3, #0]
 8001628:	4b22      	ldr	r3, [pc, #136]	; (80016b4 <start_calibration+0xb8>)
 800162a:	701f      	strb	r7, [r3, #0]
 800162c:	4b22      	ldr	r3, [pc, #136]	; (80016b8 <start_calibration+0xbc>)
 800162e:	6018      	str	r0, [r3, #0]
 8001630:	6059      	str	r1, [r3, #4]
 8001632:	4b22      	ldr	r3, [pc, #136]	; (80016bc <start_calibration+0xc0>)
 8001634:	2100      	movs	r1, #0
 8001636:	4699      	mov	r9, r3
 8001638:	464a      	mov	r2, r9
 800163a:	4b21      	ldr	r3, [pc, #132]	; (80016c0 <start_calibration+0xc4>)
 800163c:	6812      	ldr	r2, [r2, #0]
 800163e:	0028      	movs	r0, r5
 8001640:	601a      	str	r2, [r3, #0]
 8001642:	2218      	movs	r2, #24
 8001644:	f001 fa57 	bl	8002af6 <memset>
 8001648:	726c      	strb	r4, [r5, #9]
 800164a:	f7ff ffc9 	bl	80015e0 <enable_mosfets>
 800164e:	4643      	mov	r3, r8
 8001650:	2164      	movs	r1, #100	; 0x64
 8001652:	4a1c      	ldr	r2, [pc, #112]	; (80016c4 <start_calibration+0xc8>)
 8001654:	702b      	strb	r3, [r5, #0]
 8001656:	606a      	str	r2, [r5, #4]
 8001658:	4a1b      	ldr	r2, [pc, #108]	; (80016c8 <start_calibration+0xcc>)
 800165a:	2380      	movs	r3, #128	; 0x80
 800165c:	6011      	str	r1, [r2, #0]
 800165e:	4641      	mov	r1, r8
 8001660:	68f2      	ldr	r2, [r6, #12]
 8001662:	01db      	lsls	r3, r3, #7
 8001664:	430a      	orrs	r2, r1
 8001666:	806b      	strh	r3, [r5, #2]
 8001668:	60f2      	str	r2, [r6, #12]
 800166a:	2c00      	cmp	r4, #0
 800166c:	d109      	bne.n	8001682 <start_calibration+0x86>
 800166e:	b035      	add	sp, #212	; 0xd4
 8001670:	bcc0      	pop	{r6, r7}
 8001672:	46b9      	mov	r9, r7
 8001674:	46b0      	mov	r8, r6
 8001676:	bdf0      	pop	{r4, r5, r6, r7, pc}
 8001678:	2112      	movs	r1, #18
 800167a:	4814      	ldr	r0, [pc, #80]	; (80016cc <start_calibration+0xd0>)
 800167c:	f7ff f8fe 	bl	800087c <rs485_transmit>
 8001680:	e7c4      	b.n	800160c <start_calibration+0x10>
 8001682:	464a      	mov	r2, r9
 8001684:	3902      	subs	r1, #2
 8001686:	6812      	ldr	r2, [r2, #0]
 8001688:	a802      	add	r0, sp, #8
 800168a:	9101      	str	r1, [sp, #4]
 800168c:	9700      	str	r7, [sp, #0]
 800168e:	4910      	ldr	r1, [pc, #64]	; (80016d0 <start_calibration+0xd4>)
 8001690:	f001 fa3a 	bl	8002b08 <siprintf>
 8001694:	a802      	add	r0, sp, #8
 8001696:	f7fe fd33 	bl	8000100 <strlen>
 800169a:	b2c1      	uxtb	r1, r0
 800169c:	a802      	add	r0, sp, #8
 800169e:	f7ff f9d1 	bl	8000a44 <transmit>
 80016a2:	e7e4      	b.n	800166e <start_calibration+0x72>
 80016a4:	40012c00 	.word	0x40012c00
 80016a8:	200002cc 	.word	0x200002cc
 80016ac:	20000478 	.word	0x20000478
 80016b0:	20000479 	.word	0x20000479
 80016b4:	20000468 	.word	0x20000468
 80016b8:	20000358 	.word	0x20000358
 80016bc:	20000314 	.word	0x20000314
 80016c0:	20000354 	.word	0x20000354
 80016c4:	ffff0000 	.word	0xffff0000
 80016c8:	20000350 	.word	0x20000350
 80016cc:	0800360c 	.word	0x0800360c
 80016d0:	08003620 	.word	0x08003620

080016d4 <start_go_to_closed_loop_mode>:
 80016d4:	b5f8      	push	{r3, r4, r5, r6, r7, lr}
 80016d6:	46de      	mov	lr, fp
 80016d8:	4657      	mov	r7, sl
 80016da:	464e      	mov	r6, r9
 80016dc:	4645      	mov	r5, r8
 80016de:	211d      	movs	r1, #29
 80016e0:	b5e0      	push	{r5, r6, r7, lr}
 80016e2:	4841      	ldr	r0, [pc, #260]	; (80017e8 <start_go_to_closed_loop_mode+0x114>)
 80016e4:	f7ff f9ae 	bl	8000a44 <transmit>
 80016e8:	2300      	movs	r3, #0
 80016ea:	2400      	movs	r4, #0
 80016ec:	2500      	movs	r5, #0
 80016ee:	4a3f      	ldr	r2, [pc, #252]	; (80017ec <start_go_to_closed_loop_mode+0x118>)
 80016f0:	4e3f      	ldr	r6, [pc, #252]	; (80017f0 <start_go_to_closed_loop_mode+0x11c>)
 80016f2:	7013      	strb	r3, [r2, #0]
 80016f4:	4a3f      	ldr	r2, [pc, #252]	; (80017f4 <start_go_to_closed_loop_mode+0x120>)
 80016f6:	4f40      	ldr	r7, [pc, #256]	; (80017f8 <start_go_to_closed_loop_mode+0x124>)
 80016f8:	6014      	str	r4, [r2, #0]
 80016fa:	6055      	str	r5, [r2, #4]
 80016fc:	4a3f      	ldr	r2, [pc, #252]	; (80017fc <start_go_to_closed_loop_mode+0x128>)
 80016fe:	703b      	strb	r3, [r7, #0]
 8001700:	6811      	ldr	r1, [r2, #0]
 8001702:	4a3f      	ldr	r2, [pc, #252]	; (8001800 <start_go_to_closed_loop_mode+0x12c>)
 8001704:	7033      	strb	r3, [r6, #0]
 8001706:	6011      	str	r1, [r2, #0]
 8001708:	4a3e      	ldr	r2, [pc, #248]	; (8001804 <start_go_to_closed_loop_mode+0x130>)
 800170a:	7013      	strb	r3, [r2, #0]
 800170c:	f7ff ff68 	bl	80015e0 <enable_mosfets>
 8001710:	2264      	movs	r2, #100	; 0x64
 8001712:	4b3d      	ldr	r3, [pc, #244]	; (8001808 <start_go_to_closed_loop_mode+0x134>)
 8001714:	601a      	str	r2, [r3, #0]
 8001716:	7832      	ldrb	r2, [r6, #0]
 8001718:	2a0f      	cmp	r2, #15
 800171a:	d85c      	bhi.n	80017d6 <start_go_to_closed_loop_mode+0x102>
 800171c:	493b      	ldr	r1, [pc, #236]	; (800180c <start_go_to_closed_loop_mode+0x138>)
 800171e:	20fa      	movs	r0, #250	; 0xfa
 8001720:	468c      	mov	ip, r1
 8001722:	2500      	movs	r5, #0
 8001724:	783b      	ldrb	r3, [r7, #0]
 8001726:	4c3a      	ldr	r4, [pc, #232]	; (8001810 <start_go_to_closed_loop_mode+0x13c>)
 8001728:	0119      	lsls	r1, r3, #4
 800172a:	4461      	add	r1, ip
 800172c:	0080      	lsls	r0, r0, #2
 800172e:	600c      	str	r4, [r1, #0]
 8001730:	604d      	str	r5, [r1, #4]
 8001732:	6088      	str	r0, [r1, #8]
 8001734:	210f      	movs	r1, #15
 8001736:	3301      	adds	r3, #1
 8001738:	400b      	ands	r3, r1
 800173a:	4688      	mov	r8, r1
 800173c:	1c51      	adds	r1, r2, #1
 800173e:	b2c9      	uxtb	r1, r1
 8001740:	4682      	mov	sl, r0
 8001742:	703b      	strb	r3, [r7, #0]
 8001744:	7031      	strb	r1, [r6, #0]
 8001746:	2910      	cmp	r1, #16
 8001748:	d045      	beq.n	80017d6 <start_go_to_closed_loop_mode+0x102>
 800174a:	2400      	movs	r4, #0
 800174c:	2500      	movs	r5, #0
 800174e:	4831      	ldr	r0, [pc, #196]	; (8001814 <start_go_to_closed_loop_mode+0x140>)
 8001750:	0119      	lsls	r1, r3, #4
 8001752:	4461      	add	r1, ip
 8001754:	600c      	str	r4, [r1, #0]
 8001756:	604d      	str	r5, [r1, #4]
 8001758:	6088      	str	r0, [r1, #8]
 800175a:	4641      	mov	r1, r8
 800175c:	3301      	adds	r3, #1
 800175e:	400b      	ands	r3, r1
 8001760:	1c91      	adds	r1, r2, #2
 8001762:	b2c9      	uxtb	r1, r1
 8001764:	4683      	mov	fp, r0
 8001766:	703b      	strb	r3, [r7, #0]
 8001768:	7031      	strb	r1, [r6, #0]
 800176a:	2910      	cmp	r1, #16
 800176c:	d033      	beq.n	80017d6 <start_go_to_closed_loop_mode+0x102>
 800176e:	0119      	lsls	r1, r3, #4
 8001770:	4461      	add	r1, ip
 8001772:	4689      	mov	r9, r1
 8001774:	2101      	movs	r1, #1
 8001776:	464d      	mov	r5, r9
 8001778:	4827      	ldr	r0, [pc, #156]	; (8001818 <start_go_to_closed_loop_mode+0x144>)
 800177a:	4249      	negs	r1, r1
 800177c:	6028      	str	r0, [r5, #0]
 800177e:	6069      	str	r1, [r5, #4]
 8001780:	21fa      	movs	r1, #250	; 0xfa
 8001782:	00c9      	lsls	r1, r1, #3
 8001784:	60a9      	str	r1, [r5, #8]
 8001786:	4641      	mov	r1, r8
 8001788:	3301      	adds	r3, #1
 800178a:	400b      	ands	r3, r1
 800178c:	1cd1      	adds	r1, r2, #3
 800178e:	b2c9      	uxtb	r1, r1
 8001790:	703b      	strb	r3, [r7, #0]
 8001792:	7031      	strb	r1, [r6, #0]
 8001794:	2910      	cmp	r1, #16
 8001796:	d01e      	beq.n	80017d6 <start_go_to_closed_loop_mode+0x102>
 8001798:	2400      	movs	r4, #0
 800179a:	2500      	movs	r5, #0
 800179c:	4658      	mov	r0, fp
 800179e:	0119      	lsls	r1, r3, #4
 80017a0:	4461      	add	r1, ip
 80017a2:	600c      	str	r4, [r1, #0]
 80017a4:	604d      	str	r5, [r1, #4]
 80017a6:	6088      	str	r0, [r1, #8]
 80017a8:	4641      	mov	r1, r8
 80017aa:	3301      	adds	r3, #1
 80017ac:	400b      	ands	r3, r1
 80017ae:	1d11      	adds	r1, r2, #4
 80017b0:	b2c9      	uxtb	r1, r1
 80017b2:	703b      	strb	r3, [r7, #0]
 80017b4:	7031      	strb	r1, [r6, #0]
 80017b6:	2910      	cmp	r1, #16
 80017b8:	d00d      	beq.n	80017d6 <start_go_to_closed_loop_mode+0x102>
 80017ba:	2500      	movs	r5, #0
 80017bc:	4650      	mov	r0, sl
 80017be:	0119      	lsls	r1, r3, #4
 80017c0:	4c13      	ldr	r4, [pc, #76]	; (8001810 <start_go_to_closed_loop_mode+0x13c>)
 80017c2:	4461      	add	r1, ip
 80017c4:	600c      	str	r4, [r1, #0]
 80017c6:	604d      	str	r5, [r1, #4]
 80017c8:	6088      	str	r0, [r1, #8]
 80017ca:	4641      	mov	r1, r8
 80017cc:	3301      	adds	r3, #1
 80017ce:	4019      	ands	r1, r3
 80017d0:	3205      	adds	r2, #5
 80017d2:	7039      	strb	r1, [r7, #0]
 80017d4:	7032      	strb	r2, [r6, #0]
 80017d6:	2201      	movs	r2, #1
 80017d8:	4b10      	ldr	r3, [pc, #64]	; (800181c <start_go_to_closed_loop_mode+0x148>)
 80017da:	701a      	strb	r2, [r3, #0]
 80017dc:	bcf0      	pop	{r4, r5, r6, r7}
 80017de:	46bb      	mov	fp, r7
 80017e0:	46b2      	mov	sl, r6
 80017e2:	46a9      	mov	r9, r5
 80017e4:	46a0      	mov	r8, r4
 80017e6:	bdf8      	pop	{r3, r4, r5, r6, r7, pc}
 80017e8:	08003658 	.word	0x08003658
 80017ec:	20000478 	.word	0x20000478
 80017f0:	20000468 	.word	0x20000468
 80017f4:	20000358 	.word	0x20000358
 80017f8:	20000479 	.word	0x20000479
 80017fc:	20000314 	.word	0x20000314
 8001800:	20000354 	.word	0x20000354
 8001804:	2000034a 	.word	0x2000034a
 8001808:	20000350 	.word	0x20000350
 800180c:	20000368 	.word	0x20000368
 8001810:	0f424000 	.word	0x0f424000
 8001814:	00002710 	.word	0x00002710
 8001818:	f0bdc000 	.word	0xf0bdc000
 800181c:	20000318 	.word	0x20000318

08001820 <start_capture>:
 8001820:	b5f8      	push	{r3, r4, r5, r6, r7, lr}
 8001822:	2601      	movs	r6, #1
 8001824:	0005      	movs	r5, r0
 8001826:	4c09      	ldr	r4, [pc, #36]	; (800184c <start_capture+0x2c>)
 8001828:	210e      	movs	r1, #14
 800182a:	4809      	ldr	r0, [pc, #36]	; (8001850 <start_capture+0x30>)
 800182c:	f7ff f90a 	bl	8000a44 <transmit>
 8001830:	68e3      	ldr	r3, [r4, #12]
 8001832:	4f08      	ldr	r7, [pc, #32]	; (8001854 <start_capture+0x34>)
 8001834:	43b3      	bics	r3, r6
 8001836:	0038      	movs	r0, r7
 8001838:	60e3      	str	r3, [r4, #12]
 800183a:	2208      	movs	r2, #8
 800183c:	2100      	movs	r1, #0
 800183e:	f001 f95a 	bl	8002af6 <memset>
 8001842:	703d      	strb	r5, [r7, #0]
 8001844:	68e3      	ldr	r3, [r4, #12]
 8001846:	4333      	orrs	r3, r6
 8001848:	60e3      	str	r3, [r4, #12]
 800184a:	bdf8      	pop	{r3, r4, r5, r6, r7, pc}
 800184c:	40012c00 	.word	0x40012c00
 8001850:	08003678 	.word	0x08003678
 8001854:	200002e4 	.word	0x200002e4

08001858 <print_position>:
 8001858:	b500      	push	{lr}
 800185a:	4b09      	ldr	r3, [pc, #36]	; (8001880 <print_position+0x28>)
 800185c:	4a09      	ldr	r2, [pc, #36]	; (8001884 <print_position+0x2c>)
 800185e:	b09b      	sub	sp, #108	; 0x6c
 8001860:	681b      	ldr	r3, [r3, #0]
 8001862:	6812      	ldr	r2, [r2, #0]
 8001864:	4908      	ldr	r1, [pc, #32]	; (8001888 <print_position+0x30>)
 8001866:	a801      	add	r0, sp, #4
 8001868:	f001 f94e 	bl	8002b08 <siprintf>
 800186c:	a801      	add	r0, sp, #4
 800186e:	f7fe fc47 	bl	8000100 <strlen>
 8001872:	b2c1      	uxtb	r1, r0
 8001874:	a801      	add	r0, sp, #4
 8001876:	f7ff f8e5 	bl	8000a44 <transmit>
 800187a:	b01b      	add	sp, #108	; 0x6c
 800187c:	bd00      	pop	{pc}
 800187e:	46c0      	nop			; (mov r8, r8)
 8001880:	20000314 	.word	0x20000314
 8001884:	2000031c 	.word	0x2000031c
 8001888:	08003688 	.word	0x08003688

0800188c <print_queue_stats>:
 800188c:	b500      	push	{lr}
 800188e:	4b08      	ldr	r3, [pc, #32]	; (80018b0 <print_queue_stats+0x24>)
 8001890:	b09b      	sub	sp, #108	; 0x6c
 8001892:	781a      	ldrb	r2, [r3, #0]
 8001894:	4907      	ldr	r1, [pc, #28]	; (80018b4 <print_queue_stats+0x28>)
 8001896:	a801      	add	r0, sp, #4
 8001898:	f001 f936 	bl	8002b08 <siprintf>
 800189c:	a801      	add	r0, sp, #4
 800189e:	f7fe fc2f 	bl	8000100 <strlen>
 80018a2:	b2c1      	uxtb	r1, r0
 80018a4:	a801      	add	r0, sp, #4
 80018a6:	f7ff f8cd 	bl	8000a44 <transmit>
 80018aa:	b01b      	add	sp, #108	; 0x6c
 80018ac:	bd00      	pop	{pc}
 80018ae:	46c0      	nop			; (mov r8, r8)
 80018b0:	20000468 	.word	0x20000468
 80018b4:	080036b4 	.word	0x080036b4

080018b8 <print_current_movement>:
 80018b8:	b500      	push	{lr}
 80018ba:	b0a9      	sub	sp, #164	; 0xa4
 80018bc:	f7ff fe4a 	bl	8001554 <get_microsecond_time>
 80018c0:	4b17      	ldr	r3, [pc, #92]	; (8001920 <print_current_movement+0x68>)
 80018c2:	0002      	movs	r2, r0
 80018c4:	681b      	ldr	r3, [r3, #0]
 80018c6:	4917      	ldr	r1, [pc, #92]	; (8001924 <print_current_movement+0x6c>)
 80018c8:	9300      	str	r3, [sp, #0]
 80018ca:	a802      	add	r0, sp, #8
 80018cc:	2300      	movs	r3, #0
 80018ce:	f001 f91b 	bl	8002b08 <siprintf>
 80018d2:	a802      	add	r0, sp, #8
 80018d4:	f7fe fc14 	bl	8000100 <strlen>
 80018d8:	b2c1      	uxtb	r1, r0
 80018da:	a802      	add	r0, sp, #8
 80018dc:	f7ff f8b2 	bl	8000a44 <transmit>
 80018e0:	4a11      	ldr	r2, [pc, #68]	; (8001928 <print_current_movement+0x70>)
 80018e2:	4b12      	ldr	r3, [pc, #72]	; (800192c <print_current_movement+0x74>)
 80018e4:	7812      	ldrb	r2, [r2, #0]
 80018e6:	681b      	ldr	r3, [r3, #0]
 80018e8:	4911      	ldr	r1, [pc, #68]	; (8001930 <print_current_movement+0x78>)
 80018ea:	9200      	str	r2, [sp, #0]
 80018ec:	a802      	add	r0, sp, #8
 80018ee:	2200      	movs	r2, #0
 80018f0:	f001 f90a 	bl	8002b08 <siprintf>
 80018f4:	a802      	add	r0, sp, #8
 80018f6:	f7fe fc03 	bl	8000100 <strlen>
 80018fa:	b2c1      	uxtb	r1, r0
 80018fc:	a802      	add	r0, sp, #8
 80018fe:	f7ff f8a1 	bl	8000a44 <transmit>
 8001902:	2200      	movs	r2, #0
 8001904:	490b      	ldr	r1, [pc, #44]	; (8001934 <print_current_movement+0x7c>)
 8001906:	a802      	add	r0, sp, #8
 8001908:	f001 f8fe 	bl	8002b08 <siprintf>
 800190c:	a802      	add	r0, sp, #8
 800190e:	f7fe fbf7 	bl	8000100 <strlen>
 8001912:	b2c1      	uxtb	r1, r0
 8001914:	a802      	add	r0, sp, #8
 8001916:	f7ff f895 	bl	8000a44 <transmit>
 800191a:	b029      	add	sp, #164	; 0xa4
 800191c:	bd00      	pop	{pc}
 800191e:	46c0      	nop			; (mov r8, r8)
 8001920:	20000358 	.word	0x20000358
 8001924:	080036cc 	.word	0x080036cc
 8001928:	2000034a 	.word	0x2000034a
 800192c:	20000354 	.word	0x20000354
 8001930:	08003714 	.word	0x08003714
 8001934:	08003768 	.word	0x08003768

08001938 <print_velocity>:
 8001938:	b500      	push	{lr}
 800193a:	4b08      	ldr	r3, [pc, #32]	; (800195c <print_velocity+0x24>)
 800193c:	b0a7      	sub	sp, #156	; 0x9c
 800193e:	681a      	ldr	r2, [r3, #0]
 8001940:	4907      	ldr	r1, [pc, #28]	; (8001960 <print_velocity+0x28>)
 8001942:	4668      	mov	r0, sp
 8001944:	f001 f8e0 	bl	8002b08 <siprintf>
 8001948:	4668      	mov	r0, sp
 800194a:	f7fe fbd9 	bl	8000100 <strlen>
 800194e:	b2c1      	uxtb	r1, r0
 8001950:	4668      	mov	r0, sp
 8001952:	f7ff f877 	bl	8000a44 <transmit>
 8001956:	b027      	add	sp, #156	; 0x9c
 8001958:	bd00      	pop	{pc}
 800195a:	46c0      	nop			; (mov r8, r8)
 800195c:	20000484 	.word	0x20000484
 8001960:	0800377c 	.word	0x0800377c

08001964 <print_time_difference>:
 8001964:	b5f0      	push	{r4, r5, r6, r7, lr}
 8001966:	4a44      	ldr	r2, [pc, #272]	; (8001a78 <print_time_difference+0x114>)
 8001968:	4d44      	ldr	r5, [pc, #272]	; (8001a7c <print_time_difference+0x118>)
 800196a:	b0a7      	sub	sp, #156	; 0x9c
 800196c:	882b      	ldrh	r3, [r5, #0]
 800196e:	8812      	ldrh	r2, [r2, #0]
 8001970:	4943      	ldr	r1, [pc, #268]	; (8001a80 <print_time_difference+0x11c>)
 8001972:	4668      	mov	r0, sp
 8001974:	f001 f8c8 	bl	8002b08 <siprintf>
 8001978:	4668      	mov	r0, sp
 800197a:	f7fe fbc1 	bl	8000100 <strlen>
 800197e:	2400      	movs	r4, #0
 8001980:	b2c1      	uxtb	r1, r0
 8001982:	4668      	mov	r0, sp
 8001984:	f7ff f85e 	bl	8000a44 <transmit>
 8001988:	802c      	strh	r4, [r5, #0]
 800198a:	4a3e      	ldr	r2, [pc, #248]	; (8001a84 <print_time_difference+0x120>)
 800198c:	4d3e      	ldr	r5, [pc, #248]	; (8001a88 <print_time_difference+0x124>)
 800198e:	8812      	ldrh	r2, [r2, #0]
 8001990:	882b      	ldrh	r3, [r5, #0]
 8001992:	493e      	ldr	r1, [pc, #248]	; (8001a8c <print_time_difference+0x128>)
 8001994:	4668      	mov	r0, sp
 8001996:	f001 f8b7 	bl	8002b08 <siprintf>
 800199a:	4668      	mov	r0, sp
 800199c:	f7fe fbb0 	bl	8000100 <strlen>
 80019a0:	b2c1      	uxtb	r1, r0
 80019a2:	4668      	mov	r0, sp
 80019a4:	f7ff f84e 	bl	8000a44 <transmit>
 80019a8:	802c      	strh	r4, [r5, #0]
 80019aa:	4a39      	ldr	r2, [pc, #228]	; (8001a90 <print_time_difference+0x12c>)
 80019ac:	4d39      	ldr	r5, [pc, #228]	; (8001a94 <print_time_difference+0x130>)
 80019ae:	8812      	ldrh	r2, [r2, #0]
 80019b0:	882b      	ldrh	r3, [r5, #0]
 80019b2:	4939      	ldr	r1, [pc, #228]	; (8001a98 <print_time_difference+0x134>)
 80019b4:	4668      	mov	r0, sp
 80019b6:	f001 f8a7 	bl	8002b08 <siprintf>
 80019ba:	4668      	mov	r0, sp
 80019bc:	f7fe fba0 	bl	8000100 <strlen>
 80019c0:	b2c1      	uxtb	r1, r0
 80019c2:	4668      	mov	r0, sp
 80019c4:	f7ff f83e 	bl	8000a44 <transmit>
 80019c8:	802c      	strh	r4, [r5, #0]
 80019ca:	4a34      	ldr	r2, [pc, #208]	; (8001a9c <print_time_difference+0x138>)
 80019cc:	4d34      	ldr	r5, [pc, #208]	; (8001aa0 <print_time_difference+0x13c>)
 80019ce:	8812      	ldrh	r2, [r2, #0]
 80019d0:	882b      	ldrh	r3, [r5, #0]
 80019d2:	4934      	ldr	r1, [pc, #208]	; (8001aa4 <print_time_difference+0x140>)
 80019d4:	4668      	mov	r0, sp
 80019d6:	f001 f897 	bl	8002b08 <siprintf>
 80019da:	4668      	mov	r0, sp
 80019dc:	f7fe fb90 	bl	8000100 <strlen>
 80019e0:	b2c1      	uxtb	r1, r0
 80019e2:	4668      	mov	r0, sp
 80019e4:	f7ff f82e 	bl	8000a44 <transmit>
 80019e8:	802c      	strh	r4, [r5, #0]
 80019ea:	4d2f      	ldr	r5, [pc, #188]	; (8001aa8 <print_time_difference+0x144>)
 80019ec:	2200      	movs	r2, #0
 80019ee:	882b      	ldrh	r3, [r5, #0]
 80019f0:	492e      	ldr	r1, [pc, #184]	; (8001aac <print_time_difference+0x148>)
 80019f2:	4668      	mov	r0, sp
 80019f4:	f001 f888 	bl	8002b08 <siprintf>
 80019f8:	4668      	mov	r0, sp
 80019fa:	f7fe fb81 	bl	8000100 <strlen>
 80019fe:	b2c1      	uxtb	r1, r0
 8001a00:	4668      	mov	r0, sp
 8001a02:	f7ff f81f 	bl	8000a44 <transmit>
 8001a06:	4e2a      	ldr	r6, [pc, #168]	; (8001ab0 <print_time_difference+0x14c>)
 8001a08:	802c      	strh	r4, [r5, #0]
 8001a0a:	4d2a      	ldr	r5, [pc, #168]	; (8001ab4 <print_time_difference+0x150>)
 8001a0c:	6832      	ldr	r2, [r6, #0]
 8001a0e:	682b      	ldr	r3, [r5, #0]
 8001a10:	4929      	ldr	r1, [pc, #164]	; (8001ab8 <print_time_difference+0x154>)
 8001a12:	4668      	mov	r0, sp
 8001a14:	f001 f878 	bl	8002b08 <siprintf>
 8001a18:	4668      	mov	r0, sp
 8001a1a:	f7fe fb71 	bl	8000100 <strlen>
 8001a1e:	b2c1      	uxtb	r1, r0
 8001a20:	4668      	mov	r0, sp
 8001a22:	f7ff f80f 	bl	8000a44 <transmit>
 8001a26:	4f25      	ldr	r7, [pc, #148]	; (8001abc <print_time_difference+0x158>)
 8001a28:	4a25      	ldr	r2, [pc, #148]	; (8001ac0 <print_time_difference+0x15c>)
 8001a2a:	883b      	ldrh	r3, [r7, #0]
 8001a2c:	8812      	ldrh	r2, [r2, #0]
 8001a2e:	4925      	ldr	r1, [pc, #148]	; (8001ac4 <print_time_difference+0x160>)
 8001a30:	4668      	mov	r0, sp
 8001a32:	f001 f869 	bl	8002b08 <siprintf>
 8001a36:	4668      	mov	r0, sp
 8001a38:	f7fe fb62 	bl	8000100 <strlen>
 8001a3c:	b2c1      	uxtb	r1, r0
 8001a3e:	4668      	mov	r0, sp
 8001a40:	f7ff f800 	bl	8000a44 <transmit>
 8001a44:	803c      	strh	r4, [r7, #0]
 8001a46:	4a20      	ldr	r2, [pc, #128]	; (8001ac8 <print_time_difference+0x164>)
 8001a48:	4f20      	ldr	r7, [pc, #128]	; (8001acc <print_time_difference+0x168>)
 8001a4a:	8812      	ldrh	r2, [r2, #0]
 8001a4c:	883b      	ldrh	r3, [r7, #0]
 8001a4e:	4920      	ldr	r1, [pc, #128]	; (8001ad0 <print_time_difference+0x16c>)
 8001a50:	4668      	mov	r0, sp
 8001a52:	f001 f859 	bl	8002b08 <siprintf>
 8001a56:	4668      	mov	r0, sp
 8001a58:	f7fe fb52 	bl	8000100 <strlen>
 8001a5c:	b2c1      	uxtb	r1, r0
 8001a5e:	4668      	mov	r0, sp
 8001a60:	f7fe fff0 	bl	8000a44 <transmit>
 8001a64:	2201      	movs	r2, #1
 8001a66:	2300      	movs	r3, #0
 8001a68:	803c      	strh	r4, [r7, #0]
 8001a6a:	6032      	str	r2, [r6, #0]
 8001a6c:	6073      	str	r3, [r6, #4]
 8001a6e:	602a      	str	r2, [r5, #0]
 8001a70:	606b      	str	r3, [r5, #4]
 8001a72:	b027      	add	sp, #156	; 0x9c
 8001a74:	bdf0      	pop	{r4, r5, r6, r7, pc}
 8001a76:	46c0      	nop			; (mov r8, r8)
 8001a78:	2000047a 	.word	0x2000047a
 8001a7c:	20000340 	.word	0x20000340
 8001a80:	0800378c 	.word	0x0800378c
 8001a84:	2000047c 	.word	0x2000047c
 8001a88:	20000342 	.word	0x20000342
 8001a8c:	080037c0 	.word	0x080037c0
 8001a90:	2000047e 	.word	0x2000047e
 8001a94:	20000344 	.word	0x20000344
 8001a98:	080037f4 	.word	0x080037f4
 8001a9c:	20000480 	.word	0x20000480
 8001aa0:	20000346 	.word	0x20000346
 8001aa4:	08003828 	.word	0x08003828
 8001aa8:	20000348 	.word	0x20000348
 8001aac:	0800385c 	.word	0x0800385c
 8001ab0:	20000300 	.word	0x20000300
 8001ab4:	20000360 	.word	0x20000360
 8001ab8:	08003890 	.word	0x08003890
 8001abc:	2000033e 	.word	0x2000033e
 8001ac0:	2000034e 	.word	0x2000034e
 8001ac4:	080038cc 	.word	0x080038cc
 8001ac8:	2000034c 	.word	0x2000034c
 8001acc:	2000033c 	.word	0x2000033c
 8001ad0:	0800391c 	.word	0x0800391c

08001ad4 <print_motor_current>:
 8001ad4:	b500      	push	{lr}
 8001ad6:	b09b      	sub	sp, #108	; 0x6c
 8001ad8:	f7fe fd28 	bl	800052c <get_motor_current>
 8001adc:	4906      	ldr	r1, [pc, #24]	; (8001af8 <print_motor_current+0x24>)
 8001ade:	b202      	sxth	r2, r0
 8001ae0:	a801      	add	r0, sp, #4
 8001ae2:	f001 f811 	bl	8002b08 <siprintf>
 8001ae6:	a801      	add	r0, sp, #4
 8001ae8:	f7fe fb0a 	bl	8000100 <strlen>
 8001aec:	b2c1      	uxtb	r1, r0
 8001aee:	a801      	add	r0, sp, #4
 8001af0:	f7fe ffa8 	bl	8000a44 <transmit>
 8001af4:	b01b      	add	sp, #108	; 0x6c
 8001af6:	bd00      	pop	{pc}
 8001af8:	08003974 	.word	0x08003974

08001afc <add_to_queue>:
 8001afc:	b5f0      	push	{r4, r5, r6, r7, lr}
 8001afe:	46c6      	mov	lr, r8
 8001b00:	b500      	push	{lr}
 8001b02:	4d0e      	ldr	r5, [pc, #56]	; (8001b3c <add_to_queue+0x40>)
 8001b04:	782b      	ldrb	r3, [r5, #0]
 8001b06:	2b0f      	cmp	r3, #15
 8001b08:	d814      	bhi.n	8001b34 <add_to_queue+0x38>
 8001b0a:	4a0d      	ldr	r2, [pc, #52]	; (8001b40 <add_to_queue+0x44>)
 8001b0c:	0e07      	lsrs	r7, r0, #24
 8001b0e:	7816      	ldrb	r6, [r2, #0]
 8001b10:	4690      	mov	r8, r2
 8001b12:	4a0c      	ldr	r2, [pc, #48]	; (8001b44 <add_to_queue+0x48>)
 8001b14:	0134      	lsls	r4, r6, #4
 8001b16:	1912      	adds	r2, r2, r4
 8001b18:	17c4      	asrs	r4, r0, #31
 8001b1a:	0224      	lsls	r4, r4, #8
 8001b1c:	433c      	orrs	r4, r7
 8001b1e:	0200      	lsls	r0, r0, #8
 8001b20:	6010      	str	r0, [r2, #0]
 8001b22:	6054      	str	r4, [r2, #4]
 8001b24:	6091      	str	r1, [r2, #8]
 8001b26:	220f      	movs	r2, #15
 8001b28:	3601      	adds	r6, #1
 8001b2a:	4016      	ands	r6, r2
 8001b2c:	4642      	mov	r2, r8
 8001b2e:	3301      	adds	r3, #1
 8001b30:	7016      	strb	r6, [r2, #0]
 8001b32:	702b      	strb	r3, [r5, #0]
 8001b34:	bc80      	pop	{r7}
 8001b36:	46b8      	mov	r8, r7
 8001b38:	bdf0      	pop	{r4, r5, r6, r7, pc}
 8001b3a:	46c0      	nop			; (mov r8, r8)
 8001b3c:	20000468 	.word	0x20000468
 8001b40:	20000479 	.word	0x20000479
 8001b44:	20000368 	.word	0x20000368

08001b48 <get_n_items_in_queue>:
 8001b48:	4b01      	ldr	r3, [pc, #4]	; (8001b50 <get_n_items_in_queue+0x8>)
 8001b4a:	7818      	ldrb	r0, [r3, #0]
 8001b4c:	4770      	bx	lr
 8001b4e:	46c0      	nop			; (mov r8, r8)
 8001b50:	20000468 	.word	0x20000468

08001b54 <add_trapazoid_move_to_queue>:
 8001b54:	b5f0      	push	{r4, r5, r6, r7, lr}
 8001b56:	4646      	mov	r6, r8
 8001b58:	46d6      	mov	lr, sl
 8001b5a:	464f      	mov	r7, r9
 8001b5c:	b5c0      	push	{r6, r7, lr}
 8001b5e:	4e26      	ldr	r6, [pc, #152]	; (8001bf8 <add_trapazoid_move_to_queue+0xa4>)
 8001b60:	7831      	ldrb	r1, [r6, #0]
 8001b62:	290f      	cmp	r1, #15
 8001b64:	d843      	bhi.n	8001bee <add_trapazoid_move_to_queue+0x9a>
 8001b66:	4f25      	ldr	r7, [pc, #148]	; (8001bfc <add_trapazoid_move_to_queue+0xa8>)
 8001b68:	17d4      	asrs	r4, r2, #31
 8001b6a:	783b      	ldrb	r3, [r7, #0]
 8001b6c:	0e15      	lsrs	r5, r2, #24
 8001b6e:	469c      	mov	ip, r3
 8001b70:	4b23      	ldr	r3, [pc, #140]	; (8001c00 <add_trapazoid_move_to_queue+0xac>)
 8001b72:	0224      	lsls	r4, r4, #8
 8001b74:	469a      	mov	sl, r3
 8001b76:	4663      	mov	r3, ip
 8001b78:	011b      	lsls	r3, r3, #4
 8001b7a:	4453      	add	r3, sl
 8001b7c:	432c      	orrs	r4, r5
 8001b7e:	605c      	str	r4, [r3, #4]
 8001b80:	0214      	lsls	r4, r2, #8
 8001b82:	601c      	str	r4, [r3, #0]
 8001b84:	24fa      	movs	r4, #250	; 0xfa
 8001b86:	00a4      	lsls	r4, r4, #2
 8001b88:	609c      	str	r4, [r3, #8]
 8001b8a:	4663      	mov	r3, ip
 8001b8c:	46a0      	mov	r8, r4
 8001b8e:	240f      	movs	r4, #15
 8001b90:	3301      	adds	r3, #1
 8001b92:	4023      	ands	r3, r4
 8001b94:	46a4      	mov	ip, r4
 8001b96:	1c4c      	adds	r4, r1, #1
 8001b98:	b2e4      	uxtb	r4, r4
 8001b9a:	703b      	strb	r3, [r7, #0]
 8001b9c:	7034      	strb	r4, [r6, #0]
 8001b9e:	2c10      	cmp	r4, #16
 8001ba0:	d025      	beq.n	8001bee <add_trapazoid_move_to_queue+0x9a>
 8001ba2:	011c      	lsls	r4, r3, #4
 8001ba4:	46a1      	mov	r9, r4
 8001ba6:	44d1      	add	r9, sl
 8001ba8:	4648      	mov	r0, r9
 8001baa:	2400      	movs	r4, #0
 8001bac:	2500      	movs	r5, #0
 8001bae:	6004      	str	r4, [r0, #0]
 8001bb0:	6045      	str	r5, [r0, #4]
 8001bb2:	4c14      	ldr	r4, [pc, #80]	; (8001c04 <add_trapazoid_move_to_queue+0xb0>)
 8001bb4:	3301      	adds	r3, #1
 8001bb6:	6084      	str	r4, [r0, #8]
 8001bb8:	4660      	mov	r0, ip
 8001bba:	1c8c      	adds	r4, r1, #2
 8001bbc:	4003      	ands	r3, r0
 8001bbe:	b2e4      	uxtb	r4, r4
 8001bc0:	703b      	strb	r3, [r7, #0]
 8001bc2:	7034      	strb	r4, [r6, #0]
 8001bc4:	4252      	negs	r2, r2
 8001bc6:	2c10      	cmp	r4, #16
 8001bc8:	d011      	beq.n	8001bee <add_trapazoid_move_to_queue+0x9a>
 8001bca:	011c      	lsls	r4, r3, #4
 8001bcc:	0020      	movs	r0, r4
 8001bce:	0e15      	lsrs	r5, r2, #24
 8001bd0:	4450      	add	r0, sl
 8001bd2:	17d4      	asrs	r4, r2, #31
 8001bd4:	0212      	lsls	r2, r2, #8
 8001bd6:	6002      	str	r2, [r0, #0]
 8001bd8:	4642      	mov	r2, r8
 8001bda:	6082      	str	r2, [r0, #8]
 8001bdc:	4662      	mov	r2, ip
 8001bde:	0224      	lsls	r4, r4, #8
 8001be0:	3301      	adds	r3, #1
 8001be2:	432c      	orrs	r4, r5
 8001be4:	401a      	ands	r2, r3
 8001be6:	3103      	adds	r1, #3
 8001be8:	6044      	str	r4, [r0, #4]
 8001bea:	703a      	strb	r2, [r7, #0]
 8001bec:	7031      	strb	r1, [r6, #0]
 8001bee:	bce0      	pop	{r5, r6, r7}
 8001bf0:	46ba      	mov	sl, r7
 8001bf2:	46b1      	mov	r9, r6
 8001bf4:	46a8      	mov	r8, r5
 8001bf6:	bdf0      	pop	{r4, r5, r6, r7, pc}
 8001bf8:	20000468 	.word	0x20000468
 8001bfc:	20000479 	.word	0x20000479
 8001c00:	20000368 	.word	0x20000368
 8001c04:	000f4240 	.word	0x000f4240

08001c08 <motor_movement_calculations>:
 8001c08:	b5f8      	push	{r3, r4, r5, r6, r7, lr}
 8001c0a:	4647      	mov	r7, r8
 8001c0c:	46ce      	mov	lr, r9
 8001c0e:	b580      	push	{r7, lr}
 8001c10:	4e74      	ldr	r6, [pc, #464]	; (8001de4 <motor_movement_calculations+0x1dc>)
 8001c12:	4f75      	ldr	r7, [pc, #468]	; (8001de8 <motor_movement_calculations+0x1e0>)
 8001c14:	7832      	ldrb	r2, [r6, #0]
 8001c16:	2a00      	cmp	r2, #0
 8001c18:	d12f      	bne.n	8001c7a <motor_movement_calculations+0x72>
 8001c1a:	4b74      	ldr	r3, [pc, #464]	; (8001dec <motor_movement_calculations+0x1e4>)
 8001c1c:	4d74      	ldr	r5, [pc, #464]	; (8001df0 <motor_movement_calculations+0x1e8>)
 8001c1e:	4698      	mov	r8, r3
 8001c20:	4b74      	ldr	r3, [pc, #464]	; (8001df4 <motor_movement_calculations+0x1ec>)
 8001c22:	4699      	mov	r9, r3
 8001c24:	783c      	ldrb	r4, [r7, #0]
 8001c26:	2c00      	cmp	r4, #0
 8001c28:	d12f      	bne.n	8001c8a <motor_movement_calculations+0x82>
 8001c2a:	464b      	mov	r3, r9
 8001c2c:	781b      	ldrb	r3, [r3, #0]
 8001c2e:	2b00      	cmp	r3, #0
 8001c30:	d017      	beq.n	8001c62 <motor_movement_calculations+0x5a>
 8001c32:	4a71      	ldr	r2, [pc, #452]	; (8001df8 <motor_movement_calculations+0x1f0>)
 8001c34:	4871      	ldr	r0, [pc, #452]	; (8001dfc <motor_movement_calculations+0x1f4>)
 8001c36:	6811      	ldr	r1, [r2, #0]
 8001c38:	4642      	mov	r2, r8
 8001c3a:	6812      	ldr	r2, [r2, #0]
 8001c3c:	188a      	adds	r2, r1, r2
 8001c3e:	2b01      	cmp	r3, #1
 8001c40:	d100      	bne.n	8001c44 <motor_movement_calculations+0x3c>
 8001c42:	e082      	b.n	8001d4a <motor_movement_calculations+0x142>
 8001c44:	4b6e      	ldr	r3, [pc, #440]	; (8001e00 <motor_movement_calculations+0x1f8>)
 8001c46:	681b      	ldr	r3, [r3, #0]
 8001c48:	2b00      	cmp	r3, #0
 8001c4a:	da00      	bge.n	8001c4e <motor_movement_calculations+0x46>
 8001c4c:	e076      	b.n	8001d3c <motor_movement_calculations+0x134>
 8001c4e:	21b4      	movs	r1, #180	; 0xb4
 8001c50:	01c9      	lsls	r1, r1, #7
 8001c52:	468c      	mov	ip, r1
 8001c54:	4462      	add	r2, ip
 8001c56:	6002      	str	r2, [r0, #0]
 8001c58:	602b      	str	r3, [r5, #0]
 8001c5a:	bcc0      	pop	{r6, r7}
 8001c5c:	46b9      	mov	r9, r7
 8001c5e:	46b0      	mov	r8, r6
 8001c60:	bdf8      	pop	{r3, r4, r5, r6, r7, pc}
 8001c62:	4641      	mov	r1, r8
 8001c64:	4b67      	ldr	r3, [pc, #412]	; (8001e04 <motor_movement_calculations+0x1fc>)
 8001c66:	6809      	ldr	r1, [r1, #0]
 8001c68:	681b      	ldr	r3, [r3, #0]
 8001c6a:	185b      	adds	r3, r3, r1
 8001c6c:	4963      	ldr	r1, [pc, #396]	; (8001dfc <motor_movement_calculations+0x1f4>)
 8001c6e:	600b      	str	r3, [r1, #0]
 8001c70:	2a00      	cmp	r2, #0
 8001c72:	d125      	bne.n	8001cc0 <motor_movement_calculations+0xb8>
 8001c74:	2364      	movs	r3, #100	; 0x64
 8001c76:	602b      	str	r3, [r5, #0]
 8001c78:	e7ef      	b.n	8001c5a <motor_movement_calculations+0x52>
 8001c7a:	4b5c      	ldr	r3, [pc, #368]	; (8001dec <motor_movement_calculations+0x1e4>)
 8001c7c:	783c      	ldrb	r4, [r7, #0]
 8001c7e:	4698      	mov	r8, r3
 8001c80:	2c00      	cmp	r4, #0
 8001c82:	d037      	beq.n	8001cf4 <motor_movement_calculations+0xec>
 8001c84:	4b5b      	ldr	r3, [pc, #364]	; (8001df4 <motor_movement_calculations+0x1ec>)
 8001c86:	4d5a      	ldr	r5, [pc, #360]	; (8001df0 <motor_movement_calculations+0x1e8>)
 8001c88:	4699      	mov	r9, r3
 8001c8a:	4e5f      	ldr	r6, [pc, #380]	; (8001e08 <motor_movement_calculations+0x200>)
 8001c8c:	495f      	ldr	r1, [pc, #380]	; (8001e0c <motor_movement_calculations+0x204>)
 8001c8e:	46b4      	mov	ip, r6
 8001c90:	780b      	ldrb	r3, [r1, #0]
 8001c92:	011a      	lsls	r2, r3, #4
 8001c94:	4494      	add	ip, r2
 8001c96:	4662      	mov	r2, ip
 8001c98:	6892      	ldr	r2, [r2, #8]
 8001c9a:	2a00      	cmp	r2, #0
 8001c9c:	d113      	bne.n	8001cc6 <motor_movement_calculations+0xbe>
 8001c9e:	220f      	movs	r2, #15
 8001ca0:	3301      	adds	r3, #1
 8001ca2:	4013      	ands	r3, r2
 8001ca4:	3c01      	subs	r4, #1
 8001ca6:	700b      	strb	r3, [r1, #0]
 8001ca8:	703c      	strb	r4, [r7, #0]
 8001caa:	464b      	mov	r3, r9
 8001cac:	781b      	ldrb	r3, [r3, #0]
 8001cae:	2b00      	cmp	r3, #0
 8001cb0:	d1bf      	bne.n	8001c32 <motor_movement_calculations+0x2a>
 8001cb2:	4642      	mov	r2, r8
 8001cb4:	4b53      	ldr	r3, [pc, #332]	; (8001e04 <motor_movement_calculations+0x1fc>)
 8001cb6:	6812      	ldr	r2, [r2, #0]
 8001cb8:	681b      	ldr	r3, [r3, #0]
 8001cba:	189b      	adds	r3, r3, r2
 8001cbc:	4a4f      	ldr	r2, [pc, #316]	; (8001dfc <motor_movement_calculations+0x1f4>)
 8001cbe:	6013      	str	r3, [r2, #0]
 8001cc0:	237d      	movs	r3, #125	; 0x7d
 8001cc2:	602b      	str	r3, [r5, #0]
 8001cc4:	e7c9      	b.n	8001c5a <motor_movement_calculations+0x52>
 8001cc6:	4661      	mov	r1, ip
 8001cc8:	4b51      	ldr	r3, [pc, #324]	; (8001e10 <motor_movement_calculations+0x208>)
 8001cca:	6808      	ldr	r0, [r1, #0]
 8001ccc:	6849      	ldr	r1, [r1, #4]
 8001cce:	681e      	ldr	r6, [r3, #0]
 8001cd0:	685f      	ldr	r7, [r3, #4]
 8001cd2:	1980      	adds	r0, r0, r6
 8001cd4:	4179      	adcs	r1, r7
 8001cd6:	6018      	str	r0, [r3, #0]
 8001cd8:	6059      	str	r1, [r3, #4]
 8001cda:	4b4e      	ldr	r3, [pc, #312]	; (8001e14 <motor_movement_calculations+0x20c>)
 8001cdc:	3a01      	subs	r2, #1
 8001cde:	681e      	ldr	r6, [r3, #0]
 8001ce0:	685f      	ldr	r7, [r3, #4]
 8001ce2:	1980      	adds	r0, r0, r6
 8001ce4:	4179      	adcs	r1, r7
 8001ce6:	6018      	str	r0, [r3, #0]
 8001ce8:	6059      	str	r1, [r3, #4]
 8001cea:	4b46      	ldr	r3, [pc, #280]	; (8001e04 <motor_movement_calculations+0x1fc>)
 8001cec:	6019      	str	r1, [r3, #0]
 8001cee:	4663      	mov	r3, ip
 8001cf0:	609a      	str	r2, [r3, #8]
 8001cf2:	e7da      	b.n	8001caa <motor_movement_calculations+0xa2>
 8001cf4:	4d43      	ldr	r5, [pc, #268]	; (8001e04 <motor_movement_calculations+0x1fc>)
 8001cf6:	681b      	ldr	r3, [r3, #0]
 8001cf8:	682a      	ldr	r2, [r5, #0]
 8001cfa:	1a9b      	subs	r3, r3, r2
 8001cfc:	4642      	mov	r2, r8
 8001cfe:	6013      	str	r3, [r2, #0]
 8001d00:	f7ff f8c2 	bl	8000e88 <zero_hall_position>
 8001d04:	2200      	movs	r2, #0
 8001d06:	2300      	movs	r3, #0
 8001d08:	4942      	ldr	r1, [pc, #264]	; (8001e14 <motor_movement_calculations+0x20c>)
 8001d0a:	602c      	str	r4, [r5, #0]
 8001d0c:	600a      	str	r2, [r1, #0]
 8001d0e:	604b      	str	r3, [r1, #4]
 8001d10:	493f      	ldr	r1, [pc, #252]	; (8001e10 <motor_movement_calculations+0x208>)
 8001d12:	4d37      	ldr	r5, [pc, #220]	; (8001df0 <motor_movement_calculations+0x1e8>)
 8001d14:	600a      	str	r2, [r1, #0]
 8001d16:	604b      	str	r3, [r1, #4]
 8001d18:	493f      	ldr	r1, [pc, #252]	; (8001e18 <motor_movement_calculations+0x210>)
 8001d1a:	602c      	str	r4, [r5, #0]
 8001d1c:	600c      	str	r4, [r1, #0]
 8001d1e:	493f      	ldr	r1, [pc, #252]	; (8001e1c <motor_movement_calculations+0x214>)
 8001d20:	600a      	str	r2, [r1, #0]
 8001d22:	604b      	str	r3, [r1, #4]
 8001d24:	4b33      	ldr	r3, [pc, #204]	; (8001df4 <motor_movement_calculations+0x1ec>)
 8001d26:	4699      	mov	r9, r3
 8001d28:	2301      	movs	r3, #1
 8001d2a:	464a      	mov	r2, r9
 8001d2c:	7013      	strb	r3, [r2, #0]
 8001d2e:	f7fe ffd5 	bl	8000cdc <get_hall_position>
 8001d32:	4b31      	ldr	r3, [pc, #196]	; (8001df8 <motor_movement_calculations+0x1f0>)
 8001d34:	2201      	movs	r2, #1
 8001d36:	6018      	str	r0, [r3, #0]
 8001d38:	7034      	strb	r4, [r6, #0]
 8001d3a:	e773      	b.n	8001c24 <motor_movement_calculations+0x1c>
 8001d3c:	4938      	ldr	r1, [pc, #224]	; (8001e20 <motor_movement_calculations+0x218>)
 8001d3e:	425b      	negs	r3, r3
 8001d40:	468c      	mov	ip, r1
 8001d42:	4462      	add	r2, ip
 8001d44:	6002      	str	r2, [r0, #0]
 8001d46:	602b      	str	r3, [r5, #0]
 8001d48:	e787      	b.n	8001c5a <motor_movement_calculations+0x52>
 8001d4a:	4b2e      	ldr	r3, [pc, #184]	; (8001e04 <motor_movement_calculations+0x1fc>)
 8001d4c:	681b      	ldr	r3, [r3, #0]
 8001d4e:	1a59      	subs	r1, r3, r1
 8001d50:	4b34      	ldr	r3, [pc, #208]	; (8001e24 <motor_movement_calculations+0x21c>)
 8001d52:	4299      	cmp	r1, r3
 8001d54:	dd00      	ble.n	8001d58 <motor_movement_calculations+0x150>
 8001d56:	0019      	movs	r1, r3
 8001d58:	4b33      	ldr	r3, [pc, #204]	; (8001e28 <motor_movement_calculations+0x220>)
 8001d5a:	4299      	cmp	r1, r3
 8001d5c:	da00      	bge.n	8001d60 <motor_movement_calculations+0x158>
 8001d5e:	0019      	movs	r1, r3
 8001d60:	23c8      	movs	r3, #200	; 0xc8
 8001d62:	4c32      	ldr	r4, [pc, #200]	; (8001e2c <motor_movement_calculations+0x224>)
 8001d64:	045b      	lsls	r3, r3, #17
 8001d66:	6827      	ldr	r7, [r4, #0]
 8001d68:	429f      	cmp	r7, r3
 8001d6a:	dc2d      	bgt.n	8001dc8 <motor_movement_calculations+0x1c0>
 8001d6c:	4b30      	ldr	r3, [pc, #192]	; (8001e30 <motor_movement_calculations+0x228>)
 8001d6e:	429f      	cmp	r7, r3
 8001d70:	db2a      	blt.n	8001dc8 <motor_movement_calculations+0x1c0>
 8001d72:	4b30      	ldr	r3, [pc, #192]	; (8001e34 <motor_movement_calculations+0x22c>)
 8001d74:	4e30      	ldr	r6, [pc, #192]	; (8001e38 <motor_movement_calculations+0x230>)
 8001d76:	681c      	ldr	r4, [r3, #0]
 8001d78:	4699      	mov	r9, r3
 8001d7a:	1b0c      	subs	r4, r1, r4
 8001d7c:	42b4      	cmp	r4, r6
 8001d7e:	da00      	bge.n	8001d82 <motor_movement_calculations+0x17a>
 8001d80:	0034      	movs	r4, r6
 8001d82:	4e2e      	ldr	r6, [pc, #184]	; (8001e3c <motor_movement_calculations+0x234>)
 8001d84:	46b4      	mov	ip, r6
 8001d86:	4663      	mov	r3, ip
 8001d88:	6836      	ldr	r6, [r6, #0]
 8001d8a:	681b      	ldr	r3, [r3, #0]
 8001d8c:	0136      	lsls	r6, r6, #4
 8001d8e:	1af6      	subs	r6, r6, r3
 8001d90:	4b2b      	ldr	r3, [pc, #172]	; (8001e40 <motor_movement_calculations+0x238>)
 8001d92:	429c      	cmp	r4, r3
 8001d94:	dd00      	ble.n	8001d98 <motor_movement_calculations+0x190>
 8001d96:	001c      	movs	r4, r3
 8001d98:	4663      	mov	r3, ip
 8001d9a:	1934      	adds	r4, r6, r4
 8001d9c:	1124      	asrs	r4, r4, #4
 8001d9e:	601c      	str	r4, [r3, #0]
 8001da0:	464b      	mov	r3, r9
 8001da2:	6019      	str	r1, [r3, #0]
 8001da4:	4b27      	ldr	r3, [pc, #156]	; (8001e44 <motor_movement_calculations+0x23c>)
 8001da6:	434b      	muls	r3, r1
 8001da8:	4927      	ldr	r1, [pc, #156]	; (8001e48 <motor_movement_calculations+0x240>)
 8001daa:	19db      	adds	r3, r3, r7
 8001dac:	149b      	asrs	r3, r3, #18
 8001dae:	6809      	ldr	r1, [r1, #0]
 8001db0:	602b      	str	r3, [r5, #0]
 8001db2:	d40c      	bmi.n	8001dce <motor_movement_calculations+0x1c6>
 8001db4:	3164      	adds	r1, #100	; 0x64
 8001db6:	4299      	cmp	r1, r3
 8001db8:	da00      	bge.n	8001dbc <motor_movement_calculations+0x1b4>
 8001dba:	6029      	str	r1, [r5, #0]
 8001dbc:	23b4      	movs	r3, #180	; 0xb4
 8001dbe:	01db      	lsls	r3, r3, #7
 8001dc0:	469c      	mov	ip, r3
 8001dc2:	4462      	add	r2, ip
 8001dc4:	6002      	str	r2, [r0, #0]
 8001dc6:	e748      	b.n	8001c5a <motor_movement_calculations+0x52>
 8001dc8:	001f      	movs	r7, r3
 8001dca:	6023      	str	r3, [r4, #0]
 8001dcc:	e7d1      	b.n	8001d72 <motor_movement_calculations+0x16a>
 8001dce:	3964      	subs	r1, #100	; 0x64
 8001dd0:	4299      	cmp	r1, r3
 8001dd2:	da00      	bge.n	8001dd6 <motor_movement_calculations+0x1ce>
 8001dd4:	0019      	movs	r1, r3
 8001dd6:	4b12      	ldr	r3, [pc, #72]	; (8001e20 <motor_movement_calculations+0x218>)
 8001dd8:	4249      	negs	r1, r1
 8001dda:	469c      	mov	ip, r3
 8001ddc:	4462      	add	r2, ip
 8001dde:	6002      	str	r2, [r0, #0]
 8001de0:	6029      	str	r1, [r5, #0]
 8001de2:	e73a      	b.n	8001c5a <motor_movement_calculations+0x52>
 8001de4:	20000318 	.word	0x20000318
 8001de8:	20000468 	.word	0x20000468
 8001dec:	20000024 	.word	0x20000024
 8001df0:	20000350 	.word	0x20000350
 8001df4:	2000034a 	.word	0x2000034a
 8001df8:	2000031c 	.word	0x2000031c
 8001dfc:	200002ec 	.word	0x200002ec
 8001e00:	20000310 	.word	0x20000310
 8001e04:	20000314 	.word	0x20000314
 8001e08:	20000368 	.word	0x20000368
 8001e0c:	20000478 	.word	0x20000478
 8001e10:	20000308 	.word	0x20000308
 8001e14:	200002f8 	.word	0x200002f8
 8001e18:	20000354 	.word	0x20000354
 8001e1c:	20000358 	.word	0x20000358
 8001e20:	ffffa600 	.word	0xffffa600
 8001e24:	00002710 	.word	0x00002710
 8001e28:	ffffd8f0 	.word	0xffffd8f0
 8001e2c:	20000334 	.word	0x20000334
 8001e30:	fe700000 	.word	0xfe700000
 8001e34:	2000046c 	.word	0x2000046c
 8001e38:	ffffec78 	.word	0xffffec78
 8001e3c:	20000338 	.word	0x20000338
 8001e40:	00001388 	.word	0x00001388
 8001e44:	00002a30 	.word	0x00002a30
 8001e48:	20000484 	.word	0x20000484

08001e4c <motor_phase_calculations>:
 8001e4c:	21b4      	movs	r1, #180	; 0xb4
 8001e4e:	b5f8      	push	{r3, r4, r5, r6, r7, lr}
 8001e50:	4b18      	ldr	r3, [pc, #96]	; (8001eb4 <motor_phase_calculations+0x68>)
 8001e52:	0049      	lsls	r1, r1, #1
 8001e54:	681d      	ldr	r5, [r3, #0]
 8001e56:	0a28      	lsrs	r0, r5, #8
 8001e58:	f7fe f9ea 	bl	8000230 <__aeabi_uidivmod>
 8001e5c:	23ff      	movs	r3, #255	; 0xff
 8001e5e:	004c      	lsls	r4, r1, #1
 8001e60:	4f15      	ldr	r7, [pc, #84]	; (8001eb8 <motor_phase_calculations+0x6c>)
 8001e62:	1864      	adds	r4, r4, r1
 8001e64:	00e4      	lsls	r4, r4, #3
 8001e66:	193e      	adds	r6, r7, r4
 8001e68:	401d      	ands	r5, r3
 8001e6a:	6873      	ldr	r3, [r6, #4]
 8001e6c:	6932      	ldr	r2, [r6, #16]
 8001e6e:	469c      	mov	ip, r3
 8001e70:	436a      	muls	r2, r5
 8001e72:	68b3      	ldr	r3, [r6, #8]
 8001e74:	1212      	asrs	r2, r2, #8
 8001e76:	4462      	add	r2, ip
 8001e78:	469c      	mov	ip, r3
 8001e7a:	4b10      	ldr	r3, [pc, #64]	; (8001ebc <motor_phase_calculations+0x70>)
 8001e7c:	59e4      	ldr	r4, [r4, r7]
 8001e7e:	6819      	ldr	r1, [r3, #0]
 8001e80:	68f3      	ldr	r3, [r6, #12]
 8001e82:	6970      	ldr	r0, [r6, #20]
 8001e84:	436b      	muls	r3, r5
 8001e86:	121b      	asrs	r3, r3, #8
 8001e88:	191b      	adds	r3, r3, r4
 8001e8a:	0a1b      	lsrs	r3, r3, #8
 8001e8c:	4368      	muls	r0, r5
 8001e8e:	434b      	muls	r3, r1
 8001e90:	4c0b      	ldr	r4, [pc, #44]	; (8001ec0 <motor_phase_calculations+0x74>)
 8001e92:	1200      	asrs	r0, r0, #8
 8001e94:	0c1b      	lsrs	r3, r3, #16
 8001e96:	4460      	add	r0, ip
 8001e98:	330d      	adds	r3, #13
 8001e9a:	6363      	str	r3, [r4, #52]	; 0x34
 8001e9c:	0a12      	lsrs	r2, r2, #8
 8001e9e:	0a03      	lsrs	r3, r0, #8
 8001ea0:	434a      	muls	r2, r1
 8001ea2:	434b      	muls	r3, r1
 8001ea4:	0c12      	lsrs	r2, r2, #16
 8001ea6:	0c1b      	lsrs	r3, r3, #16
 8001ea8:	320d      	adds	r2, #13
 8001eaa:	330d      	adds	r3, #13
 8001eac:	63a2      	str	r2, [r4, #56]	; 0x38
 8001eae:	63e3      	str	r3, [r4, #60]	; 0x3c
 8001eb0:	bdf8      	pop	{r3, r4, r5, r6, r7, pc}
 8001eb2:	46c0      	nop			; (mov r8, r8)
 8001eb4:	200002ec 	.word	0x200002ec
 8001eb8:	0800399c 	.word	0x0800399c
 8001ebc:	20000350 	.word	0x20000350
 8001ec0:	40012c00 	.word	0x40012c00

08001ec4 <TIM1_BRK_UP_TRG_COM_IRQHandler>:
 8001ec4:	b5f8      	push	{r3, r4, r5, r6, r7, lr}
 8001ec6:	46ce      	mov	lr, r9
 8001ec8:	4647      	mov	r7, r8
 8001eca:	4e3f      	ldr	r6, [pc, #252]	; (8001fc8 <TIM1_BRK_UP_TRG_COM_IRQHandler+0x104>)
 8001ecc:	b580      	push	{r7, lr}
 8001ece:	6a74      	ldr	r4, [r6, #36]	; 0x24
 8001ed0:	f7fe ff04 	bl	8000cdc <get_hall_position>
 8001ed4:	4b3d      	ldr	r3, [pc, #244]	; (8001fcc <TIM1_BRK_UP_TRG_COM_IRQHandler+0x108>)
 8001ed6:	b2a4      	uxth	r4, r4
 8001ed8:	6018      	str	r0, [r3, #0]
 8001eda:	6a73      	ldr	r3, [r6, #36]	; 0x24
 8001edc:	4a3c      	ldr	r2, [pc, #240]	; (8001fd0 <TIM1_BRK_UP_TRG_COM_IRQHandler+0x10c>)
 8001ede:	1b1b      	subs	r3, r3, r4
 8001ee0:	b29b      	uxth	r3, r3
 8001ee2:	8013      	strh	r3, [r2, #0]
 8001ee4:	4a3b      	ldr	r2, [pc, #236]	; (8001fd4 <TIM1_BRK_UP_TRG_COM_IRQHandler+0x110>)
 8001ee6:	0005      	movs	r5, r0
 8001ee8:	8811      	ldrh	r1, [r2, #0]
 8001eea:	4299      	cmp	r1, r3
 8001eec:	d200      	bcs.n	8001ef0 <TIM1_BRK_UP_TRG_COM_IRQHandler+0x2c>
 8001eee:	8013      	strh	r3, [r2, #0]
 8001ef0:	4b39      	ldr	r3, [pc, #228]	; (8001fd8 <TIM1_BRK_UP_TRG_COM_IRQHandler+0x114>)
 8001ef2:	4935      	ldr	r1, [pc, #212]	; (8001fc8 <TIM1_BRK_UP_TRG_COM_IRQHandler+0x104>)
 8001ef4:	881a      	ldrh	r2, [r3, #0]
 8001ef6:	6a4e      	ldr	r6, [r1, #36]	; 0x24
 8001ef8:	3201      	adds	r2, #1
 8001efa:	b292      	uxth	r2, r2
 8001efc:	b2b6      	uxth	r6, r6
 8001efe:	2a13      	cmp	r2, #19
 8001f00:	d848      	bhi.n	8001f94 <TIM1_BRK_UP_TRG_COM_IRQHandler+0xd0>
 8001f02:	801a      	strh	r2, [r3, #0]
 8001f04:	4b30      	ldr	r3, [pc, #192]	; (8001fc8 <TIM1_BRK_UP_TRG_COM_IRQHandler+0x104>)
 8001f06:	4a35      	ldr	r2, [pc, #212]	; (8001fdc <TIM1_BRK_UP_TRG_COM_IRQHandler+0x118>)
 8001f08:	6a5b      	ldr	r3, [r3, #36]	; 0x24
 8001f0a:	1b9b      	subs	r3, r3, r6
 8001f0c:	b29b      	uxth	r3, r3
 8001f0e:	8013      	strh	r3, [r2, #0]
 8001f10:	4a33      	ldr	r2, [pc, #204]	; (8001fe0 <TIM1_BRK_UP_TRG_COM_IRQHandler+0x11c>)
 8001f12:	8811      	ldrh	r1, [r2, #0]
 8001f14:	4299      	cmp	r1, r3
 8001f16:	d200      	bcs.n	8001f1a <TIM1_BRK_UP_TRG_COM_IRQHandler+0x56>
 8001f18:	8013      	strh	r3, [r2, #0]
 8001f1a:	4d2b      	ldr	r5, [pc, #172]	; (8001fc8 <TIM1_BRK_UP_TRG_COM_IRQHandler+0x104>)
 8001f1c:	6a6e      	ldr	r6, [r5, #36]	; 0x24
 8001f1e:	f7ff fe73 	bl	8001c08 <motor_movement_calculations>
 8001f22:	6a6b      	ldr	r3, [r5, #36]	; 0x24
 8001f24:	4a2f      	ldr	r2, [pc, #188]	; (8001fe4 <TIM1_BRK_UP_TRG_COM_IRQHandler+0x120>)
 8001f26:	1b9b      	subs	r3, r3, r6
 8001f28:	b29b      	uxth	r3, r3
 8001f2a:	8013      	strh	r3, [r2, #0]
 8001f2c:	4a2e      	ldr	r2, [pc, #184]	; (8001fe8 <TIM1_BRK_UP_TRG_COM_IRQHandler+0x124>)
 8001f2e:	8811      	ldrh	r1, [r2, #0]
 8001f30:	4299      	cmp	r1, r3
 8001f32:	d200      	bcs.n	8001f36 <TIM1_BRK_UP_TRG_COM_IRQHandler+0x72>
 8001f34:	8013      	strh	r3, [r2, #0]
 8001f36:	4d24      	ldr	r5, [pc, #144]	; (8001fc8 <TIM1_BRK_UP_TRG_COM_IRQHandler+0x104>)
 8001f38:	6a6e      	ldr	r6, [r5, #36]	; 0x24
 8001f3a:	f7ff ff87 	bl	8001e4c <motor_phase_calculations>
 8001f3e:	6a6a      	ldr	r2, [r5, #36]	; 0x24
 8001f40:	4b2a      	ldr	r3, [pc, #168]	; (8001fec <TIM1_BRK_UP_TRG_COM_IRQHandler+0x128>)
 8001f42:	1b92      	subs	r2, r2, r6
 8001f44:	b292      	uxth	r2, r2
 8001f46:	801a      	strh	r2, [r3, #0]
 8001f48:	4b29      	ldr	r3, [pc, #164]	; (8001ff0 <TIM1_BRK_UP_TRG_COM_IRQHandler+0x12c>)
 8001f4a:	8819      	ldrh	r1, [r3, #0]
 8001f4c:	4291      	cmp	r1, r2
 8001f4e:	d200      	bcs.n	8001f52 <TIM1_BRK_UP_TRG_COM_IRQHandler+0x8e>
 8001f50:	801a      	strh	r2, [r3, #0]
 8001f52:	4b1d      	ldr	r3, [pc, #116]	; (8001fc8 <TIM1_BRK_UP_TRG_COM_IRQHandler+0x104>)
 8001f54:	4927      	ldr	r1, [pc, #156]	; (8001ff4 <TIM1_BRK_UP_TRG_COM_IRQHandler+0x130>)
 8001f56:	6a5b      	ldr	r3, [r3, #36]	; 0x24
 8001f58:	880a      	ldrh	r2, [r1, #0]
 8001f5a:	b29b      	uxth	r3, r3
 8001f5c:	4826      	ldr	r0, [pc, #152]	; (8001ff8 <TIM1_BRK_UP_TRG_COM_IRQHandler+0x134>)
 8001f5e:	1a9a      	subs	r2, r3, r2
 8001f60:	b292      	uxth	r2, r2
 8001f62:	8002      	strh	r2, [r0, #0]
 8001f64:	4825      	ldr	r0, [pc, #148]	; (8001ffc <TIM1_BRK_UP_TRG_COM_IRQHandler+0x138>)
 8001f66:	8805      	ldrh	r5, [r0, #0]
 8001f68:	4295      	cmp	r5, r2
 8001f6a:	d200      	bcs.n	8001f6e <TIM1_BRK_UP_TRG_COM_IRQHandler+0xaa>
 8001f6c:	8002      	strh	r2, [r0, #0]
 8001f6e:	800b      	strh	r3, [r1, #0]
 8001f70:	4b15      	ldr	r3, [pc, #84]	; (8001fc8 <TIM1_BRK_UP_TRG_COM_IRQHandler+0x104>)
 8001f72:	4a23      	ldr	r2, [pc, #140]	; (8002000 <TIM1_BRK_UP_TRG_COM_IRQHandler+0x13c>)
 8001f74:	6a5b      	ldr	r3, [r3, #36]	; 0x24
 8001f76:	1b1b      	subs	r3, r3, r4
 8001f78:	b29b      	uxth	r3, r3
 8001f7a:	8013      	strh	r3, [r2, #0]
 8001f7c:	4a21      	ldr	r2, [pc, #132]	; (8002004 <TIM1_BRK_UP_TRG_COM_IRQHandler+0x140>)
 8001f7e:	8811      	ldrh	r1, [r2, #0]
 8001f80:	4299      	cmp	r1, r3
 8001f82:	d200      	bcs.n	8001f86 <TIM1_BRK_UP_TRG_COM_IRQHandler+0xc2>
 8001f84:	8013      	strh	r3, [r2, #0]
 8001f86:	2200      	movs	r2, #0
 8001f88:	4b1f      	ldr	r3, [pc, #124]	; (8002008 <TIM1_BRK_UP_TRG_COM_IRQHandler+0x144>)
 8001f8a:	611a      	str	r2, [r3, #16]
 8001f8c:	bcc0      	pop	{r6, r7}
 8001f8e:	46b9      	mov	r9, r7
 8001f90:	46b0      	mov	r8, r6
 8001f92:	bdf8      	pop	{r3, r4, r5, r6, r7, pc}
 8001f94:	2200      	movs	r2, #0
 8001f96:	801a      	strh	r2, [r3, #0]
 8001f98:	4b1c      	ldr	r3, [pc, #112]	; (800200c <TIM1_BRK_UP_TRG_COM_IRQHandler+0x148>)
 8001f9a:	6a4f      	ldr	r7, [r1, #36]	; 0x24
 8001f9c:	4698      	mov	r8, r3
 8001f9e:	681b      	ldr	r3, [r3, #0]
 8001fa0:	b2bf      	uxth	r7, r7
 8001fa2:	1aeb      	subs	r3, r5, r3
 8001fa4:	0098      	lsls	r0, r3, #2
 8001fa6:	18c0      	adds	r0, r0, r3
 8001fa8:	0040      	lsls	r0, r0, #1
 8001faa:	18c0      	adds	r0, r0, r3
 8001fac:	4b18      	ldr	r3, [pc, #96]	; (8002010 <TIM1_BRK_UP_TRG_COM_IRQHandler+0x14c>)
 8001fae:	8819      	ldrh	r1, [r3, #0]
 8001fb0:	4699      	mov	r9, r3
 8001fb2:	1a79      	subs	r1, r7, r1
 8001fb4:	b289      	uxth	r1, r1
 8001fb6:	f7fe f93f 	bl	8000238 <__divsi3>
 8001fba:	4b16      	ldr	r3, [pc, #88]	; (8002014 <TIM1_BRK_UP_TRG_COM_IRQHandler+0x150>)
 8001fbc:	6018      	str	r0, [r3, #0]
 8001fbe:	4643      	mov	r3, r8
 8001fc0:	601d      	str	r5, [r3, #0]
 8001fc2:	464b      	mov	r3, r9
 8001fc4:	801f      	strh	r7, [r3, #0]
 8001fc6:	e79d      	b.n	8001f04 <TIM1_BRK_UP_TRG_COM_IRQHandler+0x40>
 8001fc8:	40000400 	.word	0x40000400
 8001fcc:	2000031c 	.word	0x2000031c
 8001fd0:	2000047a 	.word	0x2000047a
 8001fd4:	20000340 	.word	0x20000340
 8001fd8:	200002f0 	.word	0x200002f0
 8001fdc:	2000047c 	.word	0x2000047c
 8001fe0:	20000342 	.word	0x20000342
 8001fe4:	2000047e 	.word	0x2000047e
 8001fe8:	20000344 	.word	0x20000344
 8001fec:	20000480 	.word	0x20000480
 8001ff0:	20000346 	.word	0x20000346
 8001ff4:	20000474 	.word	0x20000474
 8001ff8:	2000034c 	.word	0x2000034c
 8001ffc:	2000033c 	.word	0x2000033c
 8002000:	2000034e 	.word	0x2000034e
 8002004:	2000033e 	.word	0x2000033e
 8002008:	40012c00 	.word	0x40012c00
 800200c:	20000470 	.word	0x20000470
 8002010:	20000476 	.word	0x20000476
 8002014:	20000484 	.word	0x20000484

08002018 <increase_motor_pwm_voltage>:
 8002018:	2001      	movs	r0, #1
 800201a:	4b0d      	ldr	r3, [pc, #52]	; (8002050 <increase_motor_pwm_voltage+0x38>)
 800201c:	490d      	ldr	r1, [pc, #52]	; (8002054 <increase_motor_pwm_voltage+0x3c>)
 800201e:	68da      	ldr	r2, [r3, #12]
 8002020:	b500      	push	{lr}
 8002022:	4382      	bics	r2, r0
 8002024:	60da      	str	r2, [r3, #12]
 8002026:	680a      	ldr	r2, [r1, #0]
 8002028:	b09b      	sub	sp, #108	; 0x6c
 800202a:	3201      	adds	r2, #1
 800202c:	600a      	str	r2, [r1, #0]
 800202e:	68d9      	ldr	r1, [r3, #12]
 8002030:	4301      	orrs	r1, r0
 8002032:	60d9      	str	r1, [r3, #12]
 8002034:	a801      	add	r0, sp, #4
 8002036:	4908      	ldr	r1, [pc, #32]	; (8002058 <increase_motor_pwm_voltage+0x40>)
 8002038:	f000 fd66 	bl	8002b08 <siprintf>
 800203c:	a801      	add	r0, sp, #4
 800203e:	f7fe f85f 	bl	8000100 <strlen>
 8002042:	b2c1      	uxtb	r1, r0
 8002044:	a801      	add	r0, sp, #4
 8002046:	f7fe fcfd 	bl	8000a44 <transmit>
 800204a:	b01b      	add	sp, #108	; 0x6c
 800204c:	bd00      	pop	{pc}
 800204e:	46c0      	nop			; (mov r8, r8)
 8002050:	40012c00 	.word	0x40012c00
 8002054:	20000310 	.word	0x20000310
 8002058:	0800397c 	.word	0x0800397c

0800205c <decrease_motor_pwm_voltage>:
 800205c:	2001      	movs	r0, #1
 800205e:	4b0d      	ldr	r3, [pc, #52]	; (8002094 <decrease_motor_pwm_voltage+0x38>)
 8002060:	490d      	ldr	r1, [pc, #52]	; (8002098 <decrease_motor_pwm_voltage+0x3c>)
 8002062:	68da      	ldr	r2, [r3, #12]
 8002064:	b500      	push	{lr}
 8002066:	4382      	bics	r2, r0
 8002068:	60da      	str	r2, [r3, #12]
 800206a:	680a      	ldr	r2, [r1, #0]
 800206c:	b09b      	sub	sp, #108	; 0x6c
 800206e:	3a01      	subs	r2, #1
 8002070:	600a      	str	r2, [r1, #0]
 8002072:	68d9      	ldr	r1, [r3, #12]
 8002074:	4301      	orrs	r1, r0
 8002076:	60d9      	str	r1, [r3, #12]
 8002078:	a801      	add	r0, sp, #4
 800207a:	4908      	ldr	r1, [pc, #32]	; (800209c <decrease_motor_pwm_voltage+0x40>)
 800207c:	f000 fd44 	bl	8002b08 <siprintf>
 8002080:	a801      	add	r0, sp, #4
 8002082:	f7fe f83d 	bl	8000100 <strlen>
 8002086:	b2c1      	uxtb	r1, r0
 8002088:	a801      	add	r0, sp, #4
 800208a:	f7fe fcdb 	bl	8000a44 <transmit>
 800208e:	b01b      	add	sp, #108	; 0x6c
 8002090:	bd00      	pop	{pc}
 8002092:	46c0      	nop			; (mov r8, r8)
 8002094:	40012c00 	.word	0x40012c00
 8002098:	20000310 	.word	0x20000310
 800209c:	0800397c 	.word	0x0800397c

080020a0 <set_motor_control_mode>:
 80020a0:	4b01      	ldr	r3, [pc, #4]	; (80020a8 <set_motor_control_mode+0x8>)
 80020a2:	7018      	strb	r0, [r3, #0]
 80020a4:	4770      	bx	lr
 80020a6:	46c0      	nop			; (mov r8, r8)
 80020a8:	2000034a 	.word	0x2000034a

080020ac <get_motor_control_mode>:
 80020ac:	4b01      	ldr	r3, [pc, #4]	; (80020b4 <get_motor_control_mode+0x8>)
 80020ae:	7818      	ldrb	r0, [r3, #0]
 80020b0:	4770      	bx	lr
 80020b2:	46c0      	nop			; (mov r8, r8)
 80020b4:	2000034a 	.word	0x2000034a

080020b8 <get_update_frequency>:
 80020b8:	4800      	ldr	r0, [pc, #0]	; (80020bc <get_update_frequency+0x4>)
 80020ba:	4770      	bx	lr
 80020bc:	0001e848 	.word	0x0001e848

080020c0 <zero_position_and_hall_sensor>:
 80020c0:	b5f8      	push	{r3, r4, r5, r6, r7, lr}
 80020c2:	46de      	mov	lr, fp
 80020c4:	4657      	mov	r7, sl
 80020c6:	464e      	mov	r6, r9
 80020c8:	4645      	mov	r5, r8
 80020ca:	2201      	movs	r2, #1
 80020cc:	2400      	movs	r4, #0
 80020ce:	b5e0      	push	{r5, r6, r7, lr}
 80020d0:	2600      	movs	r6, #0
 80020d2:	2700      	movs	r7, #0
 80020d4:	4d18      	ldr	r5, [pc, #96]	; (8002138 <zero_position_and_hall_sensor+0x78>)
 80020d6:	4690      	mov	r8, r2
 80020d8:	68eb      	ldr	r3, [r5, #12]
 80020da:	4393      	bics	r3, r2
 80020dc:	60eb      	str	r3, [r5, #12]
 80020de:	4b17      	ldr	r3, [pc, #92]	; (800213c <zero_position_and_hall_sensor+0x7c>)
 80020e0:	4a17      	ldr	r2, [pc, #92]	; (8002140 <zero_position_and_hall_sensor+0x80>)
 80020e2:	701c      	strb	r4, [r3, #0]
 80020e4:	4b17      	ldr	r3, [pc, #92]	; (8002144 <zero_position_and_hall_sensor+0x84>)
 80020e6:	4692      	mov	sl, r2
 80020e8:	701c      	strb	r4, [r3, #0]
 80020ea:	4b17      	ldr	r3, [pc, #92]	; (8002148 <zero_position_and_hall_sensor+0x88>)
 80020ec:	701c      	strb	r4, [r3, #0]
 80020ee:	4b17      	ldr	r3, [pc, #92]	; (800214c <zero_position_and_hall_sensor+0x8c>)
 80020f0:	601e      	str	r6, [r3, #0]
 80020f2:	605f      	str	r7, [r3, #4]
 80020f4:	4699      	mov	r9, r3
 80020f6:	4b16      	ldr	r3, [pc, #88]	; (8002150 <zero_position_and_hall_sensor+0x90>)
 80020f8:	469b      	mov	fp, r3
 80020fa:	681b      	ldr	r3, [r3, #0]
 80020fc:	6013      	str	r3, [r2, #0]
 80020fe:	4a15      	ldr	r2, [pc, #84]	; (8002154 <zero_position_and_hall_sensor+0x94>)
 8002100:	6811      	ldr	r1, [r2, #0]
 8002102:	1acb      	subs	r3, r1, r3
 8002104:	6013      	str	r3, [r2, #0]
 8002106:	f7fe febf 	bl	8000e88 <zero_hall_position>
 800210a:	465b      	mov	r3, fp
 800210c:	601c      	str	r4, [r3, #0]
 800210e:	4b12      	ldr	r3, [pc, #72]	; (8002158 <zero_position_and_hall_sensor+0x98>)
 8002110:	4642      	mov	r2, r8
 8002112:	601e      	str	r6, [r3, #0]
 8002114:	605f      	str	r7, [r3, #4]
 8002116:	4b11      	ldr	r3, [pc, #68]	; (800215c <zero_position_and_hall_sensor+0x9c>)
 8002118:	601e      	str	r6, [r3, #0]
 800211a:	605f      	str	r7, [r3, #4]
 800211c:	4653      	mov	r3, sl
 800211e:	601c      	str	r4, [r3, #0]
 8002120:	464b      	mov	r3, r9
 8002122:	601e      	str	r6, [r3, #0]
 8002124:	605f      	str	r7, [r3, #4]
 8002126:	68eb      	ldr	r3, [r5, #12]
 8002128:	4313      	orrs	r3, r2
 800212a:	60eb      	str	r3, [r5, #12]
 800212c:	bcf0      	pop	{r4, r5, r6, r7}
 800212e:	46bb      	mov	fp, r7
 8002130:	46b2      	mov	sl, r6
 8002132:	46a9      	mov	r9, r5
 8002134:	46a0      	mov	r8, r4
 8002136:	bdf8      	pop	{r3, r4, r5, r6, r7, pc}
 8002138:	40012c00 	.word	0x40012c00
 800213c:	20000478 	.word	0x20000478
 8002140:	20000354 	.word	0x20000354
 8002144:	20000479 	.word	0x20000479
 8002148:	20000468 	.word	0x20000468
 800214c:	20000358 	.word	0x20000358
 8002150:	20000314 	.word	0x20000314
 8002154:	20000024 	.word	0x20000024
 8002158:	200002f8 	.word	0x200002f8
 800215c:	20000308 	.word	0x20000308

08002160 <set_max_velocity>:
 8002160:	4b01      	ldr	r3, [pc, #4]	; (8002168 <set_max_velocity+0x8>)
 8002162:	6018      	str	r0, [r3, #0]
 8002164:	4770      	bx	lr
 8002166:	46c0      	nop			; (mov r8, r8)
 8002168:	20000028 	.word	0x20000028

0800216c <get_max_velocity>:
 800216c:	4b01      	ldr	r3, [pc, #4]	; (8002174 <get_max_velocity+0x8>)
 800216e:	6818      	ldr	r0, [r3, #0]
 8002170:	4770      	bx	lr
 8002172:	46c0      	nop			; (mov r8, r8)
 8002174:	20000028 	.word	0x20000028

08002178 <get_desired_position>:
 8002178:	4b01      	ldr	r3, [pc, #4]	; (8002180 <get_desired_position+0x8>)
 800217a:	6818      	ldr	r0, [r3, #0]
 800217c:	4770      	bx	lr
 800217e:	46c0      	nop			; (mov r8, r8)
 8002180:	20000314 	.word	0x20000314

08002184 <set_max_acceleration>:
 8002184:	2001      	movs	r0, #1
 8002186:	4b04      	ldr	r3, [pc, #16]	; (8002198 <set_max_acceleration+0x14>)
 8002188:	68d9      	ldr	r1, [r3, #12]
 800218a:	4381      	bics	r1, r0
 800218c:	60d9      	str	r1, [r3, #12]
 800218e:	68da      	ldr	r2, [r3, #12]
 8002190:	4302      	orrs	r2, r0
 8002192:	60da      	str	r2, [r3, #12]
 8002194:	4770      	bx	lr
 8002196:	46c0      	nop			; (mov r8, r8)
 8002198:	40012c00 	.word	0x40012c00

0800219c <reset_time>:
 800219c:	b570      	push	{r4, r5, r6, lr}
 800219e:	2501      	movs	r5, #1
 80021a0:	4c0c      	ldr	r4, [pc, #48]	; (80021d4 <reset_time+0x38>)
 80021a2:	2000      	movs	r0, #0
 80021a4:	68e3      	ldr	r3, [r4, #12]
 80021a6:	2100      	movs	r1, #0
 80021a8:	43ab      	bics	r3, r5
 80021aa:	60e3      	str	r3, [r4, #12]
 80021ac:	2300      	movs	r3, #0
 80021ae:	4a0a      	ldr	r2, [pc, #40]	; (80021d8 <reset_time+0x3c>)
 80021b0:	7013      	strb	r3, [r2, #0]
 80021b2:	4a0a      	ldr	r2, [pc, #40]	; (80021dc <reset_time+0x40>)
 80021b4:	7013      	strb	r3, [r2, #0]
 80021b6:	4a0a      	ldr	r2, [pc, #40]	; (80021e0 <reset_time+0x44>)
 80021b8:	7013      	strb	r3, [r2, #0]
 80021ba:	4b0a      	ldr	r3, [pc, #40]	; (80021e4 <reset_time+0x48>)
 80021bc:	6018      	str	r0, [r3, #0]
 80021be:	6059      	str	r1, [r3, #4]
 80021c0:	4b09      	ldr	r3, [pc, #36]	; (80021e8 <reset_time+0x4c>)
 80021c2:	681a      	ldr	r2, [r3, #0]
 80021c4:	4b09      	ldr	r3, [pc, #36]	; (80021ec <reset_time+0x50>)
 80021c6:	601a      	str	r2, [r3, #0]
 80021c8:	f7ff fa00 	bl	80015cc <reset_microsecond_time>
 80021cc:	68e3      	ldr	r3, [r4, #12]
 80021ce:	432b      	orrs	r3, r5
 80021d0:	60e3      	str	r3, [r4, #12]
 80021d2:	bd70      	pop	{r4, r5, r6, pc}
 80021d4:	40012c00 	.word	0x40012c00
 80021d8:	20000478 	.word	0x20000478
 80021dc:	20000479 	.word	0x20000479
 80021e0:	20000468 	.word	0x20000468
 80021e4:	20000358 	.word	0x20000358
 80021e8:	20000314 	.word	0x20000314
 80021ec:	20000354 	.word	0x20000354

080021f0 <emergency_stop>:
 80021f0:	b570      	push	{r4, r5, r6, lr}
 80021f2:	2501      	movs	r5, #1
 80021f4:	4c0c      	ldr	r4, [pc, #48]	; (8002228 <emergency_stop+0x38>)
 80021f6:	68e3      	ldr	r3, [r4, #12]
 80021f8:	43ab      	bics	r3, r5
 80021fa:	60e3      	str	r3, [r4, #12]
 80021fc:	f7ff f9f6 	bl	80015ec <disable_mosfets>
 8002200:	2300      	movs	r3, #0
 8002202:	2000      	movs	r0, #0
 8002204:	2100      	movs	r1, #0
 8002206:	4a09      	ldr	r2, [pc, #36]	; (800222c <emergency_stop+0x3c>)
 8002208:	7013      	strb	r3, [r2, #0]
 800220a:	4a09      	ldr	r2, [pc, #36]	; (8002230 <emergency_stop+0x40>)
 800220c:	7013      	strb	r3, [r2, #0]
 800220e:	4a09      	ldr	r2, [pc, #36]	; (8002234 <emergency_stop+0x44>)
 8002210:	7013      	strb	r3, [r2, #0]
 8002212:	4b09      	ldr	r3, [pc, #36]	; (8002238 <emergency_stop+0x48>)
 8002214:	6018      	str	r0, [r3, #0]
 8002216:	6059      	str	r1, [r3, #4]
 8002218:	4b08      	ldr	r3, [pc, #32]	; (800223c <emergency_stop+0x4c>)
 800221a:	681a      	ldr	r2, [r3, #0]
 800221c:	4b08      	ldr	r3, [pc, #32]	; (8002240 <emergency_stop+0x50>)
 800221e:	601a      	str	r2, [r3, #0]
 8002220:	68e3      	ldr	r3, [r4, #12]
 8002222:	432b      	orrs	r3, r5
 8002224:	60e3      	str	r3, [r4, #12]
 8002226:	bd70      	pop	{r4, r5, r6, pc}
 8002228:	40012c00 	.word	0x40012c00
 800222c:	20000478 	.word	0x20000478
 8002230:	20000479 	.word	0x20000479
 8002234:	20000468 	.word	0x20000468
 8002238:	20000358 	.word	0x20000358
 800223c:	20000314 	.word	0x20000314
 8002240:	20000354 	.word	0x20000354

08002244 <get_actual_motor_position>:
 8002244:	2101      	movs	r1, #1
 8002246:	4a09      	ldr	r2, [pc, #36]	; (800226c <get_actual_motor_position+0x28>)
 8002248:	68d3      	ldr	r3, [r2, #12]
 800224a:	438b      	bics	r3, r1
 800224c:	60d3      	str	r3, [r2, #12]
 800224e:	4b08      	ldr	r3, [pc, #32]	; (8002270 <get_actual_motor_position+0x2c>)
 8002250:	781b      	ldrb	r3, [r3, #0]
 8002252:	2b01      	cmp	r3, #1
 8002254:	d007      	beq.n	8002266 <get_actual_motor_position+0x22>
 8002256:	4b07      	ldr	r3, [pc, #28]	; (8002274 <get_actual_motor_position+0x30>)
 8002258:	6818      	ldr	r0, [r3, #0]
 800225a:	2101      	movs	r1, #1
 800225c:	4a03      	ldr	r2, [pc, #12]	; (800226c <get_actual_motor_position+0x28>)
 800225e:	68d3      	ldr	r3, [r2, #12]
 8002260:	430b      	orrs	r3, r1
 8002262:	60d3      	str	r3, [r2, #12]
 8002264:	4770      	bx	lr
 8002266:	4b04      	ldr	r3, [pc, #16]	; (8002278 <get_actual_motor_position+0x34>)
 8002268:	6818      	ldr	r0, [r3, #0]
 800226a:	e7f6      	b.n	800225a <get_actual_motor_position+0x16>
 800226c:	40012c00 	.word	0x40012c00
 8002270:	2000034a 	.word	0x2000034a
 8002274:	20000314 	.word	0x20000314
 8002278:	2000031c 	.word	0x2000031c

0800227c <get_motor_status>:
 800227c:	b570      	push	{r4, r5, r6, lr}
 800227e:	2601      	movs	r6, #1
 8002280:	4d0b      	ldr	r5, [pc, #44]	; (80022b0 <get_motor_status+0x34>)
 8002282:	0004      	movs	r4, r0
 8002284:	68eb      	ldr	r3, [r5, #12]
 8002286:	43b3      	bics	r3, r6
 8002288:	60eb      	str	r3, [r5, #12]
 800228a:	4b0a      	ldr	r3, [pc, #40]	; (80022b4 <get_motor_status+0x38>)
 800228c:	781b      	ldrb	r3, [r3, #0]
 800228e:	7003      	strb	r3, [r0, #0]
 8002290:	4b09      	ldr	r3, [pc, #36]	; (80022b8 <get_motor_status+0x3c>)
 8002292:	781b      	ldrb	r3, [r3, #0]
 8002294:	7043      	strb	r3, [r0, #1]
 8002296:	4b09      	ldr	r3, [pc, #36]	; (80022bc <get_motor_status+0x40>)
 8002298:	781b      	ldrb	r3, [r3, #0]
 800229a:	7083      	strb	r3, [r0, #2]
 800229c:	4b08      	ldr	r3, [pc, #32]	; (80022c0 <get_motor_status+0x44>)
 800229e:	781b      	ldrb	r3, [r3, #0]
 80022a0:	70c3      	strb	r3, [r0, #3]
 80022a2:	f7ff f9a9 	bl	80015f8 <get_mosfets_enabled>
 80022a6:	7120      	strb	r0, [r4, #4]
 80022a8:	68eb      	ldr	r3, [r5, #12]
 80022aa:	4333      	orrs	r3, r6
 80022ac:	60eb      	str	r3, [r5, #12]
 80022ae:	bd70      	pop	{r4, r5, r6, pc}
 80022b0:	40012c00 	.word	0x40012c00
 80022b4:	2000034a 	.word	0x2000034a
 80022b8:	200002cc 	.word	0x200002cc
 80022bc:	20000320 	.word	0x20000320
 80022c0:	200002e4 	.word	0x200002e4

080022c4 <step_and_direction_init>:
 80022c4:	4770      	bx	lr
 80022c6:	46c0      	nop			; (mov r8, r8)

080022c8 <EXTI4_15_IRQHandler>:
 80022c8:	4b07      	ldr	r3, [pc, #28]	; (80022e8 <EXTI4_15_IRQHandler+0x20>)
 80022ca:	4a08      	ldr	r2, [pc, #32]	; (80022ec <EXTI4_15_IRQHandler+0x24>)
 80022cc:	691b      	ldr	r3, [r3, #16]
 80022ce:	069b      	lsls	r3, r3, #26
 80022d0:	d506      	bpl.n	80022e0 <EXTI4_15_IRQHandler+0x18>
 80022d2:	6813      	ldr	r3, [r2, #0]
 80022d4:	3332      	adds	r3, #50	; 0x32
 80022d6:	6013      	str	r3, [r2, #0]
 80022d8:	2210      	movs	r2, #16
 80022da:	4b05      	ldr	r3, [pc, #20]	; (80022f0 <EXTI4_15_IRQHandler+0x28>)
 80022dc:	60da      	str	r2, [r3, #12]
 80022de:	4770      	bx	lr
 80022e0:	6813      	ldr	r3, [r2, #0]
 80022e2:	3b32      	subs	r3, #50	; 0x32
 80022e4:	e7f7      	b.n	80022d6 <EXTI4_15_IRQHandler+0xe>
 80022e6:	46c0      	nop			; (mov r8, r8)
 80022e8:	50000400 	.word	0x50000400
 80022ec:	20000488 	.word	0x20000488
 80022f0:	40021800 	.word	0x40021800

080022f4 <_sbrk>:
 80022f4:	490c      	ldr	r1, [pc, #48]	; (8002328 <_sbrk+0x34>)
 80022f6:	4a0d      	ldr	r2, [pc, #52]	; (800232c <_sbrk+0x38>)
 80022f8:	0003      	movs	r3, r0
 80022fa:	1a52      	subs	r2, r2, r1
 80022fc:	490c      	ldr	r1, [pc, #48]	; (8002330 <_sbrk+0x3c>)
 80022fe:	b510      	push	{r4, lr}
 8002300:	6808      	ldr	r0, [r1, #0]
 8002302:	2800      	cmp	r0, #0
 8002304:	d004      	beq.n	8002310 <_sbrk+0x1c>
 8002306:	18c3      	adds	r3, r0, r3
 8002308:	4293      	cmp	r3, r2
 800230a:	d806      	bhi.n	800231a <_sbrk+0x26>
 800230c:	600b      	str	r3, [r1, #0]
 800230e:	bd10      	pop	{r4, pc}
 8002310:	4808      	ldr	r0, [pc, #32]	; (8002334 <_sbrk+0x40>)
 8002312:	18c3      	adds	r3, r0, r3
 8002314:	6008      	str	r0, [r1, #0]
 8002316:	4293      	cmp	r3, r2
 8002318:	d9f8      	bls.n	800230c <_sbrk+0x18>
 800231a:	f000 fbb9 	bl	8002a90 <__errno>
 800231e:	230c      	movs	r3, #12
 8002320:	6003      	str	r3, [r0, #0]
 8002322:	2001      	movs	r0, #1
 8002324:	4240      	negs	r0, r0
 8002326:	e7f2      	b.n	800230e <_sbrk+0x1a>
 8002328:	00000400 	.word	0x00000400
 800232c:	20002000 	.word	0x20002000
 8002330:	2000048c 	.word	0x2000048c
 8002334:	200004a0 	.word	0x200004a0

08002338 <SystemInit>:
 8002338:	2280      	movs	r2, #128	; 0x80
 800233a:	4b02      	ldr	r3, [pc, #8]	; (8002344 <SystemInit+0xc>)
 800233c:	0512      	lsls	r2, r2, #20
 800233e:	609a      	str	r2, [r3, #8]
 8002340:	4770      	bx	lr
 8002342:	46c0      	nop			; (mov r8, r8)
 8002344:	e000ed00 	.word	0xe000ed00

08002348 <crc64.constprop.0>:
 8002348:	b5f0      	push	{r4, r5, r6, r7, lr}
 800234a:	46de      	mov	lr, fp
 800234c:	4657      	mov	r7, sl
 800234e:	464e      	mov	r6, r9
 8002350:	4645      	mov	r5, r8
 8002352:	2280      	movs	r2, #128	; 0x80
 8002354:	b5e0      	push	{r5, r6, r7, lr}
 8002356:	4ccb      	ldr	r4, [pc, #812]	; (8002684 <crc64.constprop.0+0x33c>)
 8002358:	4683      	mov	fp, r0
 800235a:	44a5      	add	sp, r4
 800235c:	9115      	str	r1, [sp, #84]	; 0x54
 800235e:	0112      	lsls	r2, r2, #4
 8002360:	2100      	movs	r1, #0
 8002362:	a816      	add	r0, sp, #88	; 0x58
 8002364:	f000 fbc7 	bl	8002af6 <memset>
 8002368:	ab16      	add	r3, sp, #88	; 0x58
 800236a:	469c      	mov	ip, r3
 800236c:	23ff      	movs	r3, #255	; 0xff
 800236e:	00db      	lsls	r3, r3, #3
 8002370:	4463      	add	r3, ip
 8002372:	2200      	movs	r2, #0
 8002374:	4699      	mov	r9, r3
 8002376:	2300      	movs	r3, #0
 8002378:	9204      	str	r2, [sp, #16]
 800237a:	9305      	str	r3, [sp, #20]
 800237c:	2380      	movs	r3, #128	; 0x80
 800237e:	2200      	movs	r2, #0
 8002380:	2400      	movs	r4, #0
 8002382:	2500      	movs	r5, #0
 8002384:	2600      	movs	r6, #0
 8002386:	2700      	movs	r7, #0
 8002388:	045b      	lsls	r3, r3, #17
 800238a:	9206      	str	r2, [sp, #24]
 800238c:	9307      	str	r3, [sp, #28]
 800238e:	4bbe      	ldr	r3, [pc, #760]	; (8002688 <crc64.constprop.0+0x340>)
 8002390:	2000      	movs	r0, #0
 8002392:	4698      	mov	r8, r3
 8002394:	2100      	movs	r1, #0
 8002396:	2200      	movs	r2, #0
 8002398:	2300      	movs	r3, #0
 800239a:	46da      	mov	sl, fp
 800239c:	9400      	str	r4, [sp, #0]
 800239e:	9501      	str	r5, [sp, #4]
 80023a0:	9602      	str	r6, [sp, #8]
 80023a2:	9703      	str	r7, [sp, #12]
 80023a4:	e02d      	b.n	8002402 <crc64.constprop.0+0xba>
 80023a6:	2200      	movs	r2, #0
 80023a8:	2300      	movs	r3, #0
 80023aa:	9e02      	ldr	r6, [sp, #8]
 80023ac:	9f03      	ldr	r7, [sp, #12]
 80023ae:	2580      	movs	r5, #128	; 0x80
 80023b0:	2400      	movs	r4, #0
 80023b2:	04ad      	lsls	r5, r5, #18
 80023b4:	1936      	adds	r6, r6, r4
 80023b6:	416f      	adcs	r7, r5
 80023b8:	9c06      	ldr	r4, [sp, #24]
 80023ba:	9d07      	ldr	r5, [sp, #28]
 80023bc:	9602      	str	r6, [sp, #8]
 80023be:	9703      	str	r7, [sp, #12]
 80023c0:	2780      	movs	r7, #128	; 0x80
 80023c2:	2600      	movs	r6, #0
 80023c4:	047f      	lsls	r7, r7, #17
 80023c6:	19a4      	adds	r4, r4, r6
 80023c8:	417d      	adcs	r5, r7
 80023ca:	2780      	movs	r7, #128	; 0x80
 80023cc:	2600      	movs	r6, #0
 80023ce:	9406      	str	r4, [sp, #24]
 80023d0:	9507      	str	r5, [sp, #28]
 80023d2:	2408      	movs	r4, #8
 80023d4:	063f      	lsls	r7, r7, #24
 80023d6:	46a3      	mov	fp, r4
 80023d8:	9c04      	ldr	r4, [sp, #16]
 80023da:	9d05      	ldr	r5, [sp, #20]
 80023dc:	19a4      	adds	r4, r4, r6
 80023de:	417d      	adcs	r5, r7
 80023e0:	9e00      	ldr	r6, [sp, #0]
 80023e2:	9f01      	ldr	r7, [sp, #4]
 80023e4:	9404      	str	r4, [sp, #16]
 80023e6:	9505      	str	r5, [sp, #20]
 80023e8:	2580      	movs	r5, #128	; 0x80
 80023ea:	2400      	movs	r4, #0
 80023ec:	05ad      	lsls	r5, r5, #22
 80023ee:	1900      	adds	r0, r0, r4
 80023f0:	4169      	adcs	r1, r5
 80023f2:	2580      	movs	r5, #128	; 0x80
 80023f4:	2400      	movs	r4, #0
 80023f6:	052d      	lsls	r5, r5, #20
 80023f8:	1936      	adds	r6, r6, r4
 80023fa:	416f      	adcs	r7, r5
 80023fc:	9600      	str	r6, [sp, #0]
 80023fe:	9701      	str	r7, [sp, #4]
 8002400:	44dc      	add	ip, fp
 8002402:	001c      	movs	r4, r3
 8002404:	9d03      	ldr	r5, [sp, #12]
 8002406:	1892      	adds	r2, r2, r2
 8002408:	415b      	adcs	r3, r3
 800240a:	406c      	eors	r4, r5
 800240c:	d500      	bpl.n	8002410 <crc64.constprop.0+0xc8>
 800240e:	e12f      	b.n	8002670 <crc64.constprop.0+0x328>
 8002410:	9208      	str	r2, [sp, #32]
 8002412:	9309      	str	r3, [sp, #36]	; 0x24
 8002414:	9c02      	ldr	r4, [sp, #8]
 8002416:	9d03      	ldr	r5, [sp, #12]
 8002418:	9e08      	ldr	r6, [sp, #32]
 800241a:	9f09      	ldr	r7, [sp, #36]	; 0x24
 800241c:	002b      	movs	r3, r5
 800241e:	0022      	movs	r2, r4
 8002420:	1912      	adds	r2, r2, r4
 8002422:	416b      	adcs	r3, r5
 8002424:	003d      	movs	r5, r7
 8002426:	407b      	eors	r3, r7
 8002428:	d500      	bpl.n	800242c <crc64.constprop.0+0xe4>
 800242a:	e113      	b.n	8002654 <crc64.constprop.0+0x30c>
 800242c:	0032      	movs	r2, r6
 800242e:	003b      	movs	r3, r7
 8002430:	0034      	movs	r4, r6
 8002432:	1912      	adds	r2, r2, r4
 8002434:	416b      	adcs	r3, r5
 8002436:	920a      	str	r2, [sp, #40]	; 0x28
 8002438:	930b      	str	r3, [sp, #44]	; 0x2c
 800243a:	9d0a      	ldr	r5, [sp, #40]	; 0x28
 800243c:	9e0b      	ldr	r6, [sp, #44]	; 0x2c
 800243e:	0033      	movs	r3, r6
 8002440:	9a01      	ldr	r2, [sp, #4]
 8002442:	4053      	eors	r3, r2
 8002444:	d500      	bpl.n	8002448 <crc64.constprop.0+0x100>
 8002446:	e0f6      	b.n	8002636 <crc64.constprop.0+0x2ee>
 8002448:	002b      	movs	r3, r5
 800244a:	0034      	movs	r4, r6
 800244c:	195b      	adds	r3, r3, r5
 800244e:	4174      	adcs	r4, r6
 8002450:	930c      	str	r3, [sp, #48]	; 0x30
 8002452:	940d      	str	r4, [sp, #52]	; 0x34
 8002454:	9c00      	ldr	r4, [sp, #0]
 8002456:	9d01      	ldr	r5, [sp, #4]
 8002458:	0022      	movs	r2, r4
 800245a:	002b      	movs	r3, r5
 800245c:	1912      	adds	r2, r2, r4
 800245e:	416b      	adcs	r3, r5
 8002460:	9c0c      	ldr	r4, [sp, #48]	; 0x30
 8002462:	9d0d      	ldr	r5, [sp, #52]	; 0x34
 8002464:	002e      	movs	r6, r5
 8002466:	406b      	eors	r3, r5
 8002468:	d500      	bpl.n	800246c <crc64.constprop.0+0x124>
 800246a:	e0d7      	b.n	800261c <crc64.constprop.0+0x2d4>
 800246c:	0025      	movs	r5, r4
 800246e:	0023      	movs	r3, r4
 8002470:	0034      	movs	r4, r6
 8002472:	195b      	adds	r3, r3, r5
 8002474:	4174      	adcs	r4, r6
 8002476:	930e      	str	r3, [sp, #56]	; 0x38
 8002478:	940f      	str	r4, [sp, #60]	; 0x3c
 800247a:	9d0e      	ldr	r5, [sp, #56]	; 0x38
 800247c:	9e0f      	ldr	r6, [sp, #60]	; 0x3c
 800247e:	0033      	movs	r3, r6
 8002480:	404b      	eors	r3, r1
 8002482:	d500      	bpl.n	8002486 <crc64.constprop.0+0x13e>
 8002484:	e0bb      	b.n	80025fe <crc64.constprop.0+0x2b6>
 8002486:	002b      	movs	r3, r5
 8002488:	0034      	movs	r4, r6
 800248a:	195b      	adds	r3, r3, r5
 800248c:	4174      	adcs	r4, r6
 800248e:	9310      	str	r3, [sp, #64]	; 0x40
 8002490:	9411      	str	r4, [sp, #68]	; 0x44
 8002492:	9c10      	ldr	r4, [sp, #64]	; 0x40
 8002494:	9d11      	ldr	r5, [sp, #68]	; 0x44
 8002496:	0002      	movs	r2, r0
 8002498:	000b      	movs	r3, r1
 800249a:	1812      	adds	r2, r2, r0
 800249c:	414b      	adcs	r3, r1
 800249e:	002e      	movs	r6, r5
 80024a0:	406b      	eors	r3, r5
 80024a2:	d500      	bpl.n	80024a6 <crc64.constprop.0+0x15e>
 80024a4:	e09e      	b.n	80025e4 <crc64.constprop.0+0x29c>
 80024a6:	0025      	movs	r5, r4
 80024a8:	0023      	movs	r3, r4
 80024aa:	0034      	movs	r4, r6
 80024ac:	195b      	adds	r3, r3, r5
 80024ae:	4174      	adcs	r4, r6
 80024b0:	9312      	str	r3, [sp, #72]	; 0x48
 80024b2:	9413      	str	r4, [sp, #76]	; 0x4c
 80024b4:	9c12      	ldr	r4, [sp, #72]	; 0x48
 80024b6:	9d13      	ldr	r5, [sp, #76]	; 0x4c
 80024b8:	9b05      	ldr	r3, [sp, #20]
 80024ba:	0022      	movs	r2, r4
 80024bc:	406b      	eors	r3, r5
 80024be:	d411      	bmi.n	80024e4 <crc64.constprop.0+0x19c>
 80024c0:	002b      	movs	r3, r5
 80024c2:	1912      	adds	r2, r2, r4
 80024c4:	416b      	adcs	r3, r5
 80024c6:	4693      	mov	fp, r2
 80024c8:	001a      	movs	r2, r3
 80024ca:	465c      	mov	r4, fp
 80024cc:	4663      	mov	r3, ip
 80024ce:	601c      	str	r4, [r3, #0]
 80024d0:	605a      	str	r2, [r3, #4]
 80024d2:	45e1      	cmp	r9, ip
 80024d4:	d016      	beq.n	8002504 <crc64.constprop.0+0x1bc>
 80024d6:	9b07      	ldr	r3, [sp, #28]
 80024d8:	2b00      	cmp	r3, #0
 80024da:	db00      	blt.n	80024de <crc64.constprop.0+0x196>
 80024dc:	e763      	b.n	80023a6 <crc64.constprop.0+0x5e>
 80024de:	4a6a      	ldr	r2, [pc, #424]	; (8002688 <crc64.constprop.0+0x340>)
 80024e0:	4b6a      	ldr	r3, [pc, #424]	; (800268c <crc64.constprop.0+0x344>)
 80024e2:	e762      	b.n	80023aa <crc64.constprop.0+0x62>
 80024e4:	002b      	movs	r3, r5
 80024e6:	1912      	adds	r2, r2, r4
 80024e8:	416b      	adcs	r3, r5
 80024ea:	0014      	movs	r4, r2
 80024ec:	001d      	movs	r5, r3
 80024ee:	4643      	mov	r3, r8
 80024f0:	4063      	eors	r3, r4
 80024f2:	469b      	mov	fp, r3
 80024f4:	4663      	mov	r3, ip
 80024f6:	465c      	mov	r4, fp
 80024f8:	4a64      	ldr	r2, [pc, #400]	; (800268c <crc64.constprop.0+0x344>)
 80024fa:	601c      	str	r4, [r3, #0]
 80024fc:	406a      	eors	r2, r5
 80024fe:	605a      	str	r2, [r3, #4]
 8002500:	45e1      	cmp	r9, ip
 8002502:	d1e8      	bne.n	80024d6 <crc64.constprop.0+0x18e>
 8002504:	2032      	movs	r0, #50	; 0x32
 8002506:	aa16      	add	r2, sp, #88	; 0x58
 8002508:	4694      	mov	ip, r2
 800250a:	9d15      	ldr	r5, [sp, #84]	; 0x54
 800250c:	0e2b      	lsrs	r3, r5, #24
 800250e:	4043      	eors	r3, r0
 8002510:	00db      	lsls	r3, r3, #3
 8002512:	4463      	add	r3, ip
 8002514:	681c      	ldr	r4, [r3, #0]
 8002516:	6859      	ldr	r1, [r3, #4]
 8002518:	4653      	mov	r3, sl
 800251a:	0e1a      	lsrs	r2, r3, #24
 800251c:	022b      	lsls	r3, r5, #8
 800251e:	4313      	orrs	r3, r2
 8002520:	4652      	mov	r2, sl
 8002522:	404b      	eors	r3, r1
 8002524:	2131      	movs	r1, #49	; 0x31
 8002526:	0212      	lsls	r2, r2, #8
 8002528:	4062      	eors	r2, r4
 800252a:	0e1c      	lsrs	r4, r3, #24
 800252c:	4061      	eors	r1, r4
 800252e:	00c9      	lsls	r1, r1, #3
 8002530:	4461      	add	r1, ip
 8002532:	680c      	ldr	r4, [r1, #0]
 8002534:	0e15      	lsrs	r5, r2, #24
 8002536:	6849      	ldr	r1, [r1, #4]
 8002538:	021b      	lsls	r3, r3, #8
 800253a:	432b      	orrs	r3, r5
 800253c:	404b      	eors	r3, r1
 800253e:	213a      	movs	r1, #58	; 0x3a
 8002540:	0212      	lsls	r2, r2, #8
 8002542:	4062      	eors	r2, r4
 8002544:	0e1c      	lsrs	r4, r3, #24
 8002546:	404c      	eors	r4, r1
 8002548:	00e4      	lsls	r4, r4, #3
 800254a:	4464      	add	r4, ip
 800254c:	6825      	ldr	r5, [r4, #0]
 800254e:	0e16      	lsrs	r6, r2, #24
 8002550:	6864      	ldr	r4, [r4, #4]
 8002552:	021b      	lsls	r3, r3, #8
 8002554:	4333      	orrs	r3, r6
 8002556:	4063      	eors	r3, r4
 8002558:	0e1c      	lsrs	r4, r3, #24
 800255a:	4060      	eors	r0, r4
 800255c:	0212      	lsls	r2, r2, #8
 800255e:	00c0      	lsls	r0, r0, #3
 8002560:	4460      	add	r0, ip
 8002562:	406a      	eors	r2, r5
 8002564:	6804      	ldr	r4, [r0, #0]
 8002566:	0e15      	lsrs	r5, r2, #24
 8002568:	6840      	ldr	r0, [r0, #4]
 800256a:	021b      	lsls	r3, r3, #8
 800256c:	432b      	orrs	r3, r5
 800256e:	4043      	eors	r3, r0
 8002570:	2035      	movs	r0, #53	; 0x35
 8002572:	0212      	lsls	r2, r2, #8
 8002574:	4062      	eors	r2, r4
 8002576:	0e1c      	lsrs	r4, r3, #24
 8002578:	4060      	eors	r0, r4
 800257a:	00c0      	lsls	r0, r0, #3
 800257c:	4460      	add	r0, ip
 800257e:	6804      	ldr	r4, [r0, #0]
 8002580:	0e15      	lsrs	r5, r2, #24
 8002582:	6840      	ldr	r0, [r0, #4]
 8002584:	021b      	lsls	r3, r3, #8
 8002586:	432b      	orrs	r3, r5
 8002588:	4043      	eors	r3, r0
 800258a:	0e18      	lsrs	r0, r3, #24
 800258c:	0212      	lsls	r2, r2, #8
 800258e:	4062      	eors	r2, r4
 8002590:	4041      	eors	r1, r0
 8002592:	0e14      	lsrs	r4, r2, #24
 8002594:	00c9      	lsls	r1, r1, #3
 8002596:	021b      	lsls	r3, r3, #8
 8002598:	4461      	add	r1, ip
 800259a:	4323      	orrs	r3, r4
 800259c:	c903      	ldmia	r1, {r0, r1}
 800259e:	404b      	eors	r3, r1
 80025a0:	2133      	movs	r1, #51	; 0x33
 80025a2:	0212      	lsls	r2, r2, #8
 80025a4:	4042      	eors	r2, r0
 80025a6:	0e18      	lsrs	r0, r3, #24
 80025a8:	4041      	eors	r1, r0
 80025aa:	0e14      	lsrs	r4, r2, #24
 80025ac:	00c9      	lsls	r1, r1, #3
 80025ae:	021b      	lsls	r3, r3, #8
 80025b0:	4323      	orrs	r3, r4
 80025b2:	4461      	add	r1, ip
 80025b4:	c903      	ldmia	r1, {r0, r1}
 80025b6:	4059      	eors	r1, r3
 80025b8:	2339      	movs	r3, #57	; 0x39
 80025ba:	0212      	lsls	r2, r2, #8
 80025bc:	4042      	eors	r2, r0
 80025be:	0e08      	lsrs	r0, r1, #24
 80025c0:	4043      	eors	r3, r0
 80025c2:	0e14      	lsrs	r4, r2, #24
 80025c4:	00db      	lsls	r3, r3, #3
 80025c6:	0209      	lsls	r1, r1, #8
 80025c8:	4463      	add	r3, ip
 80025ca:	4321      	orrs	r1, r4
 80025cc:	0212      	lsls	r2, r2, #8
 80025ce:	cb09      	ldmia	r3, {r0, r3}
 80025d0:	4050      	eors	r0, r2
 80025d2:	4059      	eors	r1, r3
 80025d4:	4b2e      	ldr	r3, [pc, #184]	; (8002690 <crc64.constprop.0+0x348>)
 80025d6:	449d      	add	sp, r3
 80025d8:	bcf0      	pop	{r4, r5, r6, r7}
 80025da:	46bb      	mov	fp, r7
 80025dc:	46b2      	mov	sl, r6
 80025de:	46a9      	mov	r9, r5
 80025e0:	46a0      	mov	r8, r4
 80025e2:	bdf0      	pop	{r4, r5, r6, r7, pc}
 80025e4:	0022      	movs	r2, r4
 80025e6:	002b      	movs	r3, r5
 80025e8:	1912      	adds	r2, r2, r4
 80025ea:	416b      	adcs	r3, r5
 80025ec:	0014      	movs	r4, r2
 80025ee:	001d      	movs	r5, r3
 80025f0:	4643      	mov	r3, r8
 80025f2:	4a26      	ldr	r2, [pc, #152]	; (800268c <crc64.constprop.0+0x344>)
 80025f4:	4063      	eors	r3, r4
 80025f6:	406a      	eors	r2, r5
 80025f8:	9312      	str	r3, [sp, #72]	; 0x48
 80025fa:	9213      	str	r2, [sp, #76]	; 0x4c
 80025fc:	e75a      	b.n	80024b4 <crc64.constprop.0+0x16c>
 80025fe:	002c      	movs	r4, r5
 8002600:	0033      	movs	r3, r6
 8002602:	0035      	movs	r5, r6
 8002604:	0022      	movs	r2, r4
 8002606:	1912      	adds	r2, r2, r4
 8002608:	416b      	adcs	r3, r5
 800260a:	0014      	movs	r4, r2
 800260c:	001d      	movs	r5, r3
 800260e:	4643      	mov	r3, r8
 8002610:	4a1e      	ldr	r2, [pc, #120]	; (800268c <crc64.constprop.0+0x344>)
 8002612:	4063      	eors	r3, r4
 8002614:	406a      	eors	r2, r5
 8002616:	9310      	str	r3, [sp, #64]	; 0x40
 8002618:	9211      	str	r2, [sp, #68]	; 0x44
 800261a:	e73a      	b.n	8002492 <crc64.constprop.0+0x14a>
 800261c:	0022      	movs	r2, r4
 800261e:	002b      	movs	r3, r5
 8002620:	1912      	adds	r2, r2, r4
 8002622:	416b      	adcs	r3, r5
 8002624:	0014      	movs	r4, r2
 8002626:	001d      	movs	r5, r3
 8002628:	4643      	mov	r3, r8
 800262a:	4a18      	ldr	r2, [pc, #96]	; (800268c <crc64.constprop.0+0x344>)
 800262c:	4063      	eors	r3, r4
 800262e:	406a      	eors	r2, r5
 8002630:	930e      	str	r3, [sp, #56]	; 0x38
 8002632:	920f      	str	r2, [sp, #60]	; 0x3c
 8002634:	e721      	b.n	800247a <crc64.constprop.0+0x132>
 8002636:	002c      	movs	r4, r5
 8002638:	0033      	movs	r3, r6
 800263a:	0035      	movs	r5, r6
 800263c:	0022      	movs	r2, r4
 800263e:	1912      	adds	r2, r2, r4
 8002640:	416b      	adcs	r3, r5
 8002642:	0014      	movs	r4, r2
 8002644:	001d      	movs	r5, r3
 8002646:	4643      	mov	r3, r8
 8002648:	4a10      	ldr	r2, [pc, #64]	; (800268c <crc64.constprop.0+0x344>)
 800264a:	4063      	eors	r3, r4
 800264c:	406a      	eors	r2, r5
 800264e:	930c      	str	r3, [sp, #48]	; 0x30
 8002650:	920d      	str	r2, [sp, #52]	; 0x34
 8002652:	e6ff      	b.n	8002454 <crc64.constprop.0+0x10c>
 8002654:	0034      	movs	r4, r6
 8002656:	0032      	movs	r2, r6
 8002658:	003b      	movs	r3, r7
 800265a:	1912      	adds	r2, r2, r4
 800265c:	416b      	adcs	r3, r5
 800265e:	0014      	movs	r4, r2
 8002660:	001d      	movs	r5, r3
 8002662:	4643      	mov	r3, r8
 8002664:	4a09      	ldr	r2, [pc, #36]	; (800268c <crc64.constprop.0+0x344>)
 8002666:	4063      	eors	r3, r4
 8002668:	406a      	eors	r2, r5
 800266a:	930a      	str	r3, [sp, #40]	; 0x28
 800266c:	920b      	str	r2, [sp, #44]	; 0x2c
 800266e:	e6e4      	b.n	800243a <crc64.constprop.0+0xf2>
 8002670:	0014      	movs	r4, r2
 8002672:	001d      	movs	r5, r3
 8002674:	4643      	mov	r3, r8
 8002676:	4a05      	ldr	r2, [pc, #20]	; (800268c <crc64.constprop.0+0x344>)
 8002678:	4063      	eors	r3, r4
 800267a:	406a      	eors	r2, r5
 800267c:	9308      	str	r3, [sp, #32]
 800267e:	9209      	str	r2, [sp, #36]	; 0x24
 8002680:	e6c8      	b.n	8002414 <crc64.constprop.0+0xcc>
 8002682:	46c0      	nop			; (mov r8, r8)
 8002684:	fffff7a4 	.word	0xfffff7a4
 8002688:	a9ea3693 	.word	0xa9ea3693
 800268c:	42f0e1eb 	.word	0x42f0e1eb
 8002690:	0000085c 	.word	0x0000085c

08002694 <crc64.constprop.1>:
 8002694:	b5f0      	push	{r4, r5, r6, r7, lr}
 8002696:	464f      	mov	r7, r9
 8002698:	4646      	mov	r6, r8
 800269a:	46d6      	mov	lr, sl
 800269c:	2280      	movs	r2, #128	; 0x80
 800269e:	b5c0      	push	{r6, r7, lr}
 80026a0:	4cd8      	ldr	r4, [pc, #864]	; (8002a04 <crc64.constprop.1+0x370>)
 80026a2:	2100      	movs	r1, #0
 80026a4:	44a5      	add	sp, r4
 80026a6:	0112      	lsls	r2, r2, #4
 80026a8:	a814      	add	r0, sp, #80	; 0x50
 80026aa:	f000 fa24 	bl	8002af6 <memset>
 80026ae:	ab14      	add	r3, sp, #80	; 0x50
 80026b0:	469c      	mov	ip, r3
 80026b2:	23ff      	movs	r3, #255	; 0xff
 80026b4:	00db      	lsls	r3, r3, #3
 80026b6:	4463      	add	r3, ip
 80026b8:	2200      	movs	r2, #0
 80026ba:	4699      	mov	r9, r3
 80026bc:	2300      	movs	r3, #0
 80026be:	9204      	str	r2, [sp, #16]
 80026c0:	9305      	str	r3, [sp, #20]
 80026c2:	2380      	movs	r3, #128	; 0x80
 80026c4:	2200      	movs	r2, #0
 80026c6:	2400      	movs	r4, #0
 80026c8:	2500      	movs	r5, #0
 80026ca:	2600      	movs	r6, #0
 80026cc:	2700      	movs	r7, #0
 80026ce:	045b      	lsls	r3, r3, #17
 80026d0:	9206      	str	r2, [sp, #24]
 80026d2:	9307      	str	r3, [sp, #28]
 80026d4:	4bcc      	ldr	r3, [pc, #816]	; (8002a08 <crc64.constprop.1+0x374>)
 80026d6:	2000      	movs	r0, #0
 80026d8:	4698      	mov	r8, r3
 80026da:	2100      	movs	r1, #0
 80026dc:	2200      	movs	r2, #0
 80026de:	2300      	movs	r3, #0
 80026e0:	9600      	str	r6, [sp, #0]
 80026e2:	9701      	str	r7, [sp, #4]
 80026e4:	9402      	str	r4, [sp, #8]
 80026e6:	9503      	str	r5, [sp, #12]
 80026e8:	e02d      	b.n	8002746 <crc64.constprop.1+0xb2>
 80026ea:	2200      	movs	r2, #0
 80026ec:	2300      	movs	r3, #0
 80026ee:	9e00      	ldr	r6, [sp, #0]
 80026f0:	9f01      	ldr	r7, [sp, #4]
 80026f2:	2580      	movs	r5, #128	; 0x80
 80026f4:	2400      	movs	r4, #0
 80026f6:	04ad      	lsls	r5, r5, #18
 80026f8:	1936      	adds	r6, r6, r4
 80026fa:	416f      	adcs	r7, r5
 80026fc:	9c06      	ldr	r4, [sp, #24]
 80026fe:	9d07      	ldr	r5, [sp, #28]
 8002700:	9600      	str	r6, [sp, #0]
 8002702:	9701      	str	r7, [sp, #4]
 8002704:	2780      	movs	r7, #128	; 0x80
 8002706:	2600      	movs	r6, #0
 8002708:	047f      	lsls	r7, r7, #17
 800270a:	19a4      	adds	r4, r4, r6
 800270c:	417d      	adcs	r5, r7
 800270e:	2780      	movs	r7, #128	; 0x80
 8002710:	2600      	movs	r6, #0
 8002712:	9406      	str	r4, [sp, #24]
 8002714:	9507      	str	r5, [sp, #28]
 8002716:	2408      	movs	r4, #8
 8002718:	063f      	lsls	r7, r7, #24
 800271a:	46a2      	mov	sl, r4
 800271c:	9c04      	ldr	r4, [sp, #16]
 800271e:	9d05      	ldr	r5, [sp, #20]
 8002720:	19a4      	adds	r4, r4, r6
 8002722:	417d      	adcs	r5, r7
 8002724:	9e02      	ldr	r6, [sp, #8]
 8002726:	9f03      	ldr	r7, [sp, #12]
 8002728:	9404      	str	r4, [sp, #16]
 800272a:	9505      	str	r5, [sp, #20]
 800272c:	2580      	movs	r5, #128	; 0x80
 800272e:	2400      	movs	r4, #0
 8002730:	05ad      	lsls	r5, r5, #22
 8002732:	1900      	adds	r0, r0, r4
 8002734:	4169      	adcs	r1, r5
 8002736:	2580      	movs	r5, #128	; 0x80
 8002738:	2400      	movs	r4, #0
 800273a:	052d      	lsls	r5, r5, #20
 800273c:	1936      	adds	r6, r6, r4
 800273e:	416f      	adcs	r7, r5
 8002740:	9602      	str	r6, [sp, #8]
 8002742:	9703      	str	r7, [sp, #12]
 8002744:	44d4      	add	ip, sl
 8002746:	001c      	movs	r4, r3
 8002748:	9d01      	ldr	r5, [sp, #4]
 800274a:	1892      	adds	r2, r2, r2
 800274c:	415b      	adcs	r3, r3
 800274e:	406c      	eors	r4, r5
 8002750:	d500      	bpl.n	8002754 <crc64.constprop.1+0xc0>
 8002752:	e14d      	b.n	80029f0 <crc64.constprop.1+0x35c>
 8002754:	9208      	str	r2, [sp, #32]
 8002756:	9309      	str	r3, [sp, #36]	; 0x24
 8002758:	9c00      	ldr	r4, [sp, #0]
 800275a:	9d01      	ldr	r5, [sp, #4]
 800275c:	9e08      	ldr	r6, [sp, #32]
 800275e:	9f09      	ldr	r7, [sp, #36]	; 0x24
 8002760:	002b      	movs	r3, r5
 8002762:	0022      	movs	r2, r4
 8002764:	1912      	adds	r2, r2, r4
 8002766:	416b      	adcs	r3, r5
 8002768:	003d      	movs	r5, r7
 800276a:	407b      	eors	r3, r7
 800276c:	d500      	bpl.n	8002770 <crc64.constprop.1+0xdc>
 800276e:	e131      	b.n	80029d4 <crc64.constprop.1+0x340>
 8002770:	0032      	movs	r2, r6
 8002772:	003b      	movs	r3, r7
 8002774:	0034      	movs	r4, r6
 8002776:	1912      	adds	r2, r2, r4
 8002778:	416b      	adcs	r3, r5
 800277a:	920a      	str	r2, [sp, #40]	; 0x28
 800277c:	930b      	str	r3, [sp, #44]	; 0x2c
 800277e:	9d0a      	ldr	r5, [sp, #40]	; 0x28
 8002780:	9e0b      	ldr	r6, [sp, #44]	; 0x2c
 8002782:	0033      	movs	r3, r6
 8002784:	9a03      	ldr	r2, [sp, #12]
 8002786:	4053      	eors	r3, r2
 8002788:	d500      	bpl.n	800278c <crc64.constprop.1+0xf8>
 800278a:	e114      	b.n	80029b6 <crc64.constprop.1+0x322>
 800278c:	002b      	movs	r3, r5
 800278e:	0034      	movs	r4, r6
 8002790:	195b      	adds	r3, r3, r5
 8002792:	4174      	adcs	r4, r6
 8002794:	930c      	str	r3, [sp, #48]	; 0x30
 8002796:	940d      	str	r4, [sp, #52]	; 0x34
 8002798:	9c02      	ldr	r4, [sp, #8]
 800279a:	9d03      	ldr	r5, [sp, #12]
 800279c:	0022      	movs	r2, r4
 800279e:	002b      	movs	r3, r5
 80027a0:	1912      	adds	r2, r2, r4
 80027a2:	416b      	adcs	r3, r5
 80027a4:	9c0c      	ldr	r4, [sp, #48]	; 0x30
 80027a6:	9d0d      	ldr	r5, [sp, #52]	; 0x34
 80027a8:	002e      	movs	r6, r5
 80027aa:	406b      	eors	r3, r5
 80027ac:	d500      	bpl.n	80027b0 <crc64.constprop.1+0x11c>
 80027ae:	e0f5      	b.n	800299c <crc64.constprop.1+0x308>
 80027b0:	0025      	movs	r5, r4
 80027b2:	0023      	movs	r3, r4
 80027b4:	0034      	movs	r4, r6
 80027b6:	195b      	adds	r3, r3, r5
 80027b8:	4174      	adcs	r4, r6
 80027ba:	930e      	str	r3, [sp, #56]	; 0x38
 80027bc:	940f      	str	r4, [sp, #60]	; 0x3c
 80027be:	9d0e      	ldr	r5, [sp, #56]	; 0x38
 80027c0:	9e0f      	ldr	r6, [sp, #60]	; 0x3c
 80027c2:	0033      	movs	r3, r6
 80027c4:	404b      	eors	r3, r1
 80027c6:	d500      	bpl.n	80027ca <crc64.constprop.1+0x136>
 80027c8:	e0d9      	b.n	800297e <crc64.constprop.1+0x2ea>
 80027ca:	002b      	movs	r3, r5
 80027cc:	0034      	movs	r4, r6
 80027ce:	195b      	adds	r3, r3, r5
 80027d0:	4174      	adcs	r4, r6
 80027d2:	9310      	str	r3, [sp, #64]	; 0x40
 80027d4:	9411      	str	r4, [sp, #68]	; 0x44
 80027d6:	9c10      	ldr	r4, [sp, #64]	; 0x40
 80027d8:	9d11      	ldr	r5, [sp, #68]	; 0x44
 80027da:	0002      	movs	r2, r0
 80027dc:	000b      	movs	r3, r1
 80027de:	1812      	adds	r2, r2, r0
 80027e0:	414b      	adcs	r3, r1
 80027e2:	002e      	movs	r6, r5
 80027e4:	406b      	eors	r3, r5
 80027e6:	d500      	bpl.n	80027ea <crc64.constprop.1+0x156>
 80027e8:	e0bc      	b.n	8002964 <crc64.constprop.1+0x2d0>
 80027ea:	0025      	movs	r5, r4
 80027ec:	0023      	movs	r3, r4
 80027ee:	0034      	movs	r4, r6
 80027f0:	195b      	adds	r3, r3, r5
 80027f2:	4174      	adcs	r4, r6
 80027f4:	9312      	str	r3, [sp, #72]	; 0x48
 80027f6:	9413      	str	r4, [sp, #76]	; 0x4c
 80027f8:	9c12      	ldr	r4, [sp, #72]	; 0x48
 80027fa:	9d13      	ldr	r5, [sp, #76]	; 0x4c
 80027fc:	002b      	movs	r3, r5
 80027fe:	9a05      	ldr	r2, [sp, #20]
 8002800:	4053      	eors	r3, r2
 8002802:	0022      	movs	r2, r4
 8002804:	2b00      	cmp	r3, #0
 8002806:	db11      	blt.n	800282c <crc64.constprop.1+0x198>
 8002808:	002b      	movs	r3, r5
 800280a:	1912      	adds	r2, r2, r4
 800280c:	416b      	adcs	r3, r5
 800280e:	4692      	mov	sl, r2
 8002810:	001a      	movs	r2, r3
 8002812:	4654      	mov	r4, sl
 8002814:	4663      	mov	r3, ip
 8002816:	601c      	str	r4, [r3, #0]
 8002818:	605a      	str	r2, [r3, #4]
 800281a:	45e1      	cmp	r9, ip
 800281c:	d016      	beq.n	800284c <crc64.constprop.1+0x1b8>
 800281e:	9b07      	ldr	r3, [sp, #28]
 8002820:	2b00      	cmp	r3, #0
 8002822:	db00      	blt.n	8002826 <crc64.constprop.1+0x192>
 8002824:	e761      	b.n	80026ea <crc64.constprop.1+0x56>
 8002826:	4a78      	ldr	r2, [pc, #480]	; (8002a08 <crc64.constprop.1+0x374>)
 8002828:	4b78      	ldr	r3, [pc, #480]	; (8002a0c <crc64.constprop.1+0x378>)
 800282a:	e760      	b.n	80026ee <crc64.constprop.1+0x5a>
 800282c:	002b      	movs	r3, r5
 800282e:	1912      	adds	r2, r2, r4
 8002830:	416b      	adcs	r3, r5
 8002832:	0014      	movs	r4, r2
 8002834:	001d      	movs	r5, r3
 8002836:	4643      	mov	r3, r8
 8002838:	4063      	eors	r3, r4
 800283a:	469a      	mov	sl, r3
 800283c:	4663      	mov	r3, ip
 800283e:	4654      	mov	r4, sl
 8002840:	4a72      	ldr	r2, [pc, #456]	; (8002a0c <crc64.constprop.1+0x378>)
 8002842:	601c      	str	r4, [r3, #0]
 8002844:	406a      	eors	r2, r5
 8002846:	605a      	str	r2, [r3, #4]
 8002848:	45e1      	cmp	r9, ip
 800284a:	d1e8      	bne.n	800281e <crc64.constprop.1+0x18a>
 800284c:	9b98      	ldr	r3, [sp, #608]	; 0x260
 800284e:	4a70      	ldr	r2, [pc, #448]	; (8002a10 <crc64.constprop.1+0x37c>)
 8002850:	9999      	ldr	r1, [sp, #612]	; 0x264
 8002852:	405a      	eors	r2, r3
 8002854:	4b6f      	ldr	r3, [pc, #444]	; (8002a14 <crc64.constprop.1+0x380>)
 8002856:	0e14      	lsrs	r4, r2, #24
 8002858:	404b      	eors	r3, r1
 800285a:	2165      	movs	r1, #101	; 0x65
 800285c:	0e18      	lsrs	r0, r3, #24
 800285e:	4041      	eors	r1, r0
 8002860:	a814      	add	r0, sp, #80	; 0x50
 8002862:	4684      	mov	ip, r0
 8002864:	00c9      	lsls	r1, r1, #3
 8002866:	021b      	lsls	r3, r3, #8
 8002868:	4461      	add	r1, ip
 800286a:	4323      	orrs	r3, r4
 800286c:	c903      	ldmia	r1, {r0, r1}
 800286e:	404b      	eors	r3, r1
 8002870:	2170      	movs	r1, #112	; 0x70
 8002872:	0212      	lsls	r2, r2, #8
 8002874:	4042      	eors	r2, r0
 8002876:	0e18      	lsrs	r0, r3, #24
 8002878:	4041      	eors	r1, r0
 800287a:	0e14      	lsrs	r4, r2, #24
 800287c:	00c9      	lsls	r1, r1, #3
 800287e:	021b      	lsls	r3, r3, #8
 8002880:	4461      	add	r1, ip
 8002882:	4323      	orrs	r3, r4
 8002884:	c903      	ldmia	r1, {r0, r1}
 8002886:	404b      	eors	r3, r1
 8002888:	2120      	movs	r1, #32
 800288a:	0212      	lsls	r2, r2, #8
 800288c:	4042      	eors	r2, r0
 800288e:	0e18      	lsrs	r0, r3, #24
 8002890:	4048      	eors	r0, r1
 8002892:	00c0      	lsls	r0, r0, #3
 8002894:	4460      	add	r0, ip
 8002896:	6804      	ldr	r4, [r0, #0]
 8002898:	0e15      	lsrs	r5, r2, #24
 800289a:	6840      	ldr	r0, [r0, #4]
 800289c:	021b      	lsls	r3, r3, #8
 800289e:	432b      	orrs	r3, r5
 80028a0:	4043      	eors	r3, r0
 80028a2:	2031      	movs	r0, #49	; 0x31
 80028a4:	0212      	lsls	r2, r2, #8
 80028a6:	4062      	eors	r2, r4
 80028a8:	0e1c      	lsrs	r4, r3, #24
 80028aa:	4044      	eors	r4, r0
 80028ac:	00e4      	lsls	r4, r4, #3
 80028ae:	4464      	add	r4, ip
 80028b0:	6825      	ldr	r5, [r4, #0]
 80028b2:	0e16      	lsrs	r6, r2, #24
 80028b4:	6864      	ldr	r4, [r4, #4]
 80028b6:	021b      	lsls	r3, r3, #8
 80028b8:	4333      	orrs	r3, r6
 80028ba:	4063      	eors	r3, r4
 80028bc:	2436      	movs	r4, #54	; 0x36
 80028be:	0212      	lsls	r2, r2, #8
 80028c0:	406a      	eors	r2, r5
 80028c2:	0e1d      	lsrs	r5, r3, #24
 80028c4:	406c      	eors	r4, r5
 80028c6:	00e4      	lsls	r4, r4, #3
 80028c8:	4464      	add	r4, ip
 80028ca:	6826      	ldr	r6, [r4, #0]
 80028cc:	0e15      	lsrs	r5, r2, #24
 80028ce:	6864      	ldr	r4, [r4, #4]
 80028d0:	021b      	lsls	r3, r3, #8
 80028d2:	432b      	orrs	r3, r5
 80028d4:	4063      	eors	r3, r4
 80028d6:	0212      	lsls	r2, r2, #8
 80028d8:	4056      	eors	r6, r2
 80028da:	0e1a      	lsrs	r2, r3, #24
 80028dc:	404a      	eors	r2, r1
 80028de:	0219      	lsls	r1, r3, #8
 80028e0:	2332      	movs	r3, #50	; 0x32
 80028e2:	00d2      	lsls	r2, r2, #3
 80028e4:	4462      	add	r2, ip
 80028e6:	6814      	ldr	r4, [r2, #0]
 80028e8:	0e35      	lsrs	r5, r6, #24
 80028ea:	6852      	ldr	r2, [r2, #4]
 80028ec:	4329      	orrs	r1, r5
 80028ee:	404a      	eors	r2, r1
 80028f0:	0e11      	lsrs	r1, r2, #24
 80028f2:	4059      	eors	r1, r3
 80028f4:	0235      	lsls	r5, r6, #8
 80028f6:	00c9      	lsls	r1, r1, #3
 80028f8:	4065      	eors	r5, r4
 80028fa:	4461      	add	r1, ip
 80028fc:	680e      	ldr	r6, [r1, #0]
 80028fe:	0e2c      	lsrs	r4, r5, #24
 8002900:	6849      	ldr	r1, [r1, #4]
 8002902:	0212      	lsls	r2, r2, #8
 8002904:	4322      	orrs	r2, r4
 8002906:	4051      	eors	r1, r2
 8002908:	2230      	movs	r2, #48	; 0x30
 800290a:	022c      	lsls	r4, r5, #8
 800290c:	0e0d      	lsrs	r5, r1, #24
 800290e:	406a      	eors	r2, r5
 8002910:	00d2      	lsls	r2, r2, #3
 8002912:	4462      	add	r2, ip
 8002914:	4074      	eors	r4, r6
 8002916:	6815      	ldr	r5, [r2, #0]
 8002918:	0e26      	lsrs	r6, r4, #24
 800291a:	6852      	ldr	r2, [r2, #4]
 800291c:	0209      	lsls	r1, r1, #8
 800291e:	4331      	orrs	r1, r6
 8002920:	404a      	eors	r2, r1
 8002922:	0e11      	lsrs	r1, r2, #24
 8002924:	404b      	eors	r3, r1
 8002926:	0224      	lsls	r4, r4, #8
 8002928:	00db      	lsls	r3, r3, #3
 800292a:	4065      	eors	r5, r4
 800292c:	4463      	add	r3, ip
 800292e:	681c      	ldr	r4, [r3, #0]
 8002930:	6859      	ldr	r1, [r3, #4]
 8002932:	0e2e      	lsrs	r6, r5, #24
 8002934:	0213      	lsls	r3, r2, #8
 8002936:	4333      	orrs	r3, r6
 8002938:	4059      	eors	r1, r3
 800293a:	022a      	lsls	r2, r5, #8
 800293c:	0e0b      	lsrs	r3, r1, #24
 800293e:	4062      	eors	r2, r4
 8002940:	4043      	eors	r3, r0
 8002942:	0e14      	lsrs	r4, r2, #24
 8002944:	00db      	lsls	r3, r3, #3
 8002946:	0209      	lsls	r1, r1, #8
 8002948:	4463      	add	r3, ip
 800294a:	4321      	orrs	r1, r4
 800294c:	0212      	lsls	r2, r2, #8
 800294e:	cb09      	ldmia	r3, {r0, r3}
 8002950:	4050      	eors	r0, r2
 8002952:	4059      	eors	r1, r3
 8002954:	2385      	movs	r3, #133	; 0x85
 8002956:	011b      	lsls	r3, r3, #4
 8002958:	449d      	add	sp, r3
 800295a:	bce0      	pop	{r5, r6, r7}
 800295c:	46ba      	mov	sl, r7
 800295e:	46b1      	mov	r9, r6
 8002960:	46a8      	mov	r8, r5
 8002962:	bdf0      	pop	{r4, r5, r6, r7, pc}
 8002964:	0022      	movs	r2, r4
 8002966:	002b      	movs	r3, r5
 8002968:	1912      	adds	r2, r2, r4
 800296a:	416b      	adcs	r3, r5
 800296c:	0014      	movs	r4, r2
 800296e:	001d      	movs	r5, r3
 8002970:	4643      	mov	r3, r8
 8002972:	4a26      	ldr	r2, [pc, #152]	; (8002a0c <crc64.constprop.1+0x378>)
 8002974:	4063      	eors	r3, r4
 8002976:	406a      	eors	r2, r5
 8002978:	9312      	str	r3, [sp, #72]	; 0x48
 800297a:	9213      	str	r2, [sp, #76]	; 0x4c
 800297c:	e73c      	b.n	80027f8 <crc64.constprop.1+0x164>
 800297e:	002c      	movs	r4, r5
 8002980:	0033      	movs	r3, r6
 8002982:	0035      	movs	r5, r6
 8002984:	0022      	movs	r2, r4
 8002986:	1912      	adds	r2, r2, r4
 8002988:	416b      	adcs	r3, r5
 800298a:	0014      	movs	r4, r2
 800298c:	001d      	movs	r5, r3
 800298e:	4643      	mov	r3, r8
 8002990:	4a1e      	ldr	r2, [pc, #120]	; (8002a0c <crc64.constprop.1+0x378>)
 8002992:	4063      	eors	r3, r4
 8002994:	406a      	eors	r2, r5
 8002996:	9310      	str	r3, [sp, #64]	; 0x40
 8002998:	9211      	str	r2, [sp, #68]	; 0x44
 800299a:	e71c      	b.n	80027d6 <crc64.constprop.1+0x142>
 800299c:	0022      	movs	r2, r4
 800299e:	002b      	movs	r3, r5
 80029a0:	1912      	adds	r2, r2, r4
 80029a2:	416b      	adcs	r3, r5
 80029a4:	0014      	movs	r4, r2
 80029a6:	001d      	movs	r5, r3
 80029a8:	4643      	mov	r3, r8
 80029aa:	4a18      	ldr	r2, [pc, #96]	; (8002a0c <crc64.constprop.1+0x378>)
 80029ac:	4063      	eors	r3, r4
 80029ae:	406a      	eors	r2, r5
 80029b0:	930e      	str	r3, [sp, #56]	; 0x38
 80029b2:	920f      	str	r2, [sp, #60]	; 0x3c
 80029b4:	e703      	b.n	80027be <crc64.constprop.1+0x12a>
 80029b6:	002c      	movs	r4, r5
 80029b8:	0033      	movs	r3, r6
 80029ba:	0035      	movs	r5, r6
 80029bc:	0022      	movs	r2, r4
 80029be:	1912      	adds	r2, r2, r4
 80029c0:	416b      	adcs	r3, r5
 80029c2:	0014      	movs	r4, r2
 80029c4:	001d      	movs	r5, r3
 80029c6:	4643      	mov	r3, r8
 80029c8:	4a10      	ldr	r2, [pc, #64]	; (8002a0c <crc64.constprop.1+0x378>)
 80029ca:	4063      	eors	r3, r4
 80029cc:	406a      	eors	r2, r5
 80029ce:	930c      	str	r3, [sp, #48]	; 0x30
 80029d0:	920d      	str	r2, [sp, #52]	; 0x34
 80029d2:	e6e1      	b.n	8002798 <crc64.constprop.1+0x104>
 80029d4:	0034      	movs	r4, r6
 80029d6:	0032      	movs	r2, r6
 80029d8:	003b      	movs	r3, r7
 80029da:	1912      	adds	r2, r2, r4
 80029dc:	416b      	adcs	r3, r5
 80029de:	0014      	movs	r4, r2
 80029e0:	001d      	movs	r5, r3
 80029e2:	4643      	mov	r3, r8
 80029e4:	4a09      	ldr	r2, [pc, #36]	; (8002a0c <crc64.constprop.1+0x378>)
 80029e6:	4063      	eors	r3, r4
 80029e8:	406a      	eors	r2, r5
 80029ea:	930a      	str	r3, [sp, #40]	; 0x28
 80029ec:	920b      	str	r2, [sp, #44]	; 0x2c
 80029ee:	e6c6      	b.n	800277e <crc64.constprop.1+0xea>
 80029f0:	0014      	movs	r4, r2
 80029f2:	001d      	movs	r5, r3
 80029f4:	4643      	mov	r3, r8
 80029f6:	4a05      	ldr	r2, [pc, #20]	; (8002a0c <crc64.constprop.1+0x378>)
 80029f8:	4063      	eors	r3, r4
 80029fa:	406a      	eors	r2, r5
 80029fc:	9308      	str	r3, [sp, #32]
 80029fe:	9209      	str	r2, [sp, #36]	; 0x24
 8002a00:	e6aa      	b.n	8002758 <crc64.constprop.1+0xc4>
 8002a02:	46c0      	nop			; (mov r8, r8)
 8002a04:	fffff7b0 	.word	0xfffff7b0
 8002a08:	a9ea3693 	.word	0xa9ea3693
 8002a0c:	42f0e1eb 	.word	0x42f0e1eb
 8002a10:	d230a200 	.word	0xd230a200
 8002a14:	2210f4b2 	.word	0x2210f4b2

08002a18 <get_unique_id>:
 8002a18:	b510      	push	{r4, lr}
 8002a1a:	f7ff fe3b 	bl	8002694 <crc64.constprop.1>
 8002a1e:	f7ff fc93 	bl	8002348 <crc64.constprop.0>
 8002a22:	bd10      	pop	{r4, pc}

08002a24 <get_random_number>:
 8002a24:	0001      	movs	r1, r0
 8002a26:	4b04      	ldr	r3, [pc, #16]	; (8002a38 <get_random_number+0x14>)
 8002a28:	b510      	push	{r4, lr}
 8002a2a:	6898      	ldr	r0, [r3, #8]
 8002a2c:	3101      	adds	r1, #1
 8002a2e:	f7fd fbff 	bl	8000230 <__aeabi_uidivmod>
 8002a32:	0008      	movs	r0, r1
 8002a34:	bd10      	pop	{r4, pc}
 8002a36:	46c0      	nop			; (mov r8, r8)
 8002a38:	e000e010 	.word	0xe000e010

08002a3c <Reset_Handler>:
 8002a3c:	480d      	ldr	r0, [pc, #52]	; (8002a74 <LoopForever+0x2>)
 8002a3e:	4685      	mov	sp, r0
 8002a40:	f7ff fc7a 	bl	8002338 <SystemInit>
 8002a44:	480c      	ldr	r0, [pc, #48]	; (8002a78 <LoopForever+0x6>)
 8002a46:	490d      	ldr	r1, [pc, #52]	; (8002a7c <LoopForever+0xa>)
 8002a48:	4a0d      	ldr	r2, [pc, #52]	; (8002a80 <LoopForever+0xe>)
 8002a4a:	2300      	movs	r3, #0
 8002a4c:	e002      	b.n	8002a54 <LoopCopyDataInit>

08002a4e <CopyDataInit>:
 8002a4e:	58d4      	ldr	r4, [r2, r3]
 8002a50:	50c4      	str	r4, [r0, r3]
 8002a52:	3304      	adds	r3, #4

08002a54 <LoopCopyDataInit>:
 8002a54:	18c4      	adds	r4, r0, r3
 8002a56:	428c      	cmp	r4, r1
 8002a58:	d3f9      	bcc.n	8002a4e <CopyDataInit>
 8002a5a:	4a0a      	ldr	r2, [pc, #40]	; (8002a84 <LoopForever+0x12>)
 8002a5c:	4c0a      	ldr	r4, [pc, #40]	; (8002a88 <LoopForever+0x16>)
 8002a5e:	2300      	movs	r3, #0
 8002a60:	e001      	b.n	8002a66 <LoopFillZerobss>

08002a62 <FillZerobss>:
 8002a62:	6013      	str	r3, [r2, #0]
 8002a64:	3204      	adds	r2, #4

08002a66 <LoopFillZerobss>:
 8002a66:	42a2      	cmp	r2, r4
 8002a68:	d3fb      	bcc.n	8002a62 <FillZerobss>
 8002a6a:	f000 f817 	bl	8002a9c <__libc_init_array>
 8002a6e:	f7fe fbd1 	bl	8001214 <main>

08002a72 <LoopForever>:
 8002a72:	e7fe      	b.n	8002a72 <LoopForever>
 8002a74:	20002000 	.word	0x20002000
 8002a78:	20000000 	.word	0x20000000
 8002a7c:	20000090 	.word	0x20000090
 8002a80:	08005b98 	.word	0x08005b98
 8002a84:	20000090 	.word	0x20000090
 8002a88:	200004a0 	.word	0x200004a0

08002a8c <ADC1_IRQHandler>:
 8002a8c:	e7fe      	b.n	8002a8c <ADC1_IRQHandler>
	...

08002a90 <__errno>:
 8002a90:	4b01      	ldr	r3, [pc, #4]	; (8002a98 <__errno+0x8>)
 8002a92:	6818      	ldr	r0, [r3, #0]
 8002a94:	4770      	bx	lr
 8002a96:	46c0      	nop			; (mov r8, r8)
 8002a98:	2000002c 	.word	0x2000002c

08002a9c <__libc_init_array>:
 8002a9c:	b570      	push	{r4, r5, r6, lr}
 8002a9e:	2600      	movs	r6, #0
 8002aa0:	4d0c      	ldr	r5, [pc, #48]	; (8002ad4 <__libc_init_array+0x38>)
 8002aa2:	4c0d      	ldr	r4, [pc, #52]	; (8002ad8 <__libc_init_array+0x3c>)
 8002aa4:	1b64      	subs	r4, r4, r5
 8002aa6:	10a4      	asrs	r4, r4, #2
 8002aa8:	42a6      	cmp	r6, r4
 8002aaa:	d109      	bne.n	8002ac0 <__libc_init_array+0x24>
 8002aac:	2600      	movs	r6, #0
 8002aae:	f000 fc47 	bl	8003340 <_init>
 8002ab2:	4d0a      	ldr	r5, [pc, #40]	; (8002adc <__libc_init_array+0x40>)
 8002ab4:	4c0a      	ldr	r4, [pc, #40]	; (8002ae0 <__libc_init_array+0x44>)
 8002ab6:	1b64      	subs	r4, r4, r5
 8002ab8:	10a4      	asrs	r4, r4, #2
 8002aba:	42a6      	cmp	r6, r4
 8002abc:	d105      	bne.n	8002aca <__libc_init_array+0x2e>
 8002abe:	bd70      	pop	{r4, r5, r6, pc}
 8002ac0:	00b3      	lsls	r3, r6, #2
 8002ac2:	58eb      	ldr	r3, [r5, r3]
 8002ac4:	4798      	blx	r3
 8002ac6:	3601      	adds	r6, #1
 8002ac8:	e7ee      	b.n	8002aa8 <__libc_init_array+0xc>
 8002aca:	00b3      	lsls	r3, r6, #2
 8002acc:	58eb      	ldr	r3, [r5, r3]
 8002ace:	4798      	blx	r3
 8002ad0:	3601      	adds	r6, #1
 8002ad2:	e7f2      	b.n	8002aba <__libc_init_array+0x1e>
 8002ad4:	08005b90 	.word	0x08005b90
 8002ad8:	08005b90 	.word	0x08005b90
 8002adc:	08005b90 	.word	0x08005b90
 8002ae0:	08005b94 	.word	0x08005b94

08002ae4 <memcpy>:
 8002ae4:	2300      	movs	r3, #0
 8002ae6:	b510      	push	{r4, lr}
 8002ae8:	429a      	cmp	r2, r3
 8002aea:	d100      	bne.n	8002aee <memcpy+0xa>
 8002aec:	bd10      	pop	{r4, pc}
 8002aee:	5ccc      	ldrb	r4, [r1, r3]
 8002af0:	54c4      	strb	r4, [r0, r3]
 8002af2:	3301      	adds	r3, #1
 8002af4:	e7f8      	b.n	8002ae8 <memcpy+0x4>

08002af6 <memset>:
 8002af6:	0003      	movs	r3, r0
 8002af8:	1882      	adds	r2, r0, r2
 8002afa:	4293      	cmp	r3, r2
 8002afc:	d100      	bne.n	8002b00 <memset+0xa>
 8002afe:	4770      	bx	lr
 8002b00:	7019      	strb	r1, [r3, #0]
 8002b02:	3301      	adds	r3, #1
 8002b04:	e7f9      	b.n	8002afa <memset+0x4>
	...

08002b08 <siprintf>:
 8002b08:	b40e      	push	{r1, r2, r3}
 8002b0a:	b500      	push	{lr}
 8002b0c:	490b      	ldr	r1, [pc, #44]	; (8002b3c <siprintf+0x34>)
 8002b0e:	b09c      	sub	sp, #112	; 0x70
 8002b10:	ab1d      	add	r3, sp, #116	; 0x74
 8002b12:	9002      	str	r0, [sp, #8]
 8002b14:	9006      	str	r0, [sp, #24]
 8002b16:	9107      	str	r1, [sp, #28]
 8002b18:	9104      	str	r1, [sp, #16]
 8002b1a:	4809      	ldr	r0, [pc, #36]	; (8002b40 <siprintf+0x38>)
 8002b1c:	4909      	ldr	r1, [pc, #36]	; (8002b44 <siprintf+0x3c>)
 8002b1e:	cb04      	ldmia	r3!, {r2}
 8002b20:	9105      	str	r1, [sp, #20]
 8002b22:	6800      	ldr	r0, [r0, #0]
 8002b24:	a902      	add	r1, sp, #8
 8002b26:	9301      	str	r3, [sp, #4]
 8002b28:	f000 f870 	bl	8002c0c <_svfiprintf_r>
 8002b2c:	2300      	movs	r3, #0
 8002b2e:	9a02      	ldr	r2, [sp, #8]
 8002b30:	7013      	strb	r3, [r2, #0]
 8002b32:	b01c      	add	sp, #112	; 0x70
 8002b34:	bc08      	pop	{r3}
 8002b36:	b003      	add	sp, #12
 8002b38:	4718      	bx	r3
 8002b3a:	46c0      	nop			; (mov r8, r8)
 8002b3c:	7fffffff 	.word	0x7fffffff
 8002b40:	2000002c 	.word	0x2000002c
 8002b44:	ffff0208 	.word	0xffff0208

08002b48 <__ssputs_r>:
 8002b48:	b5f0      	push	{r4, r5, r6, r7, lr}
 8002b4a:	688e      	ldr	r6, [r1, #8]
 8002b4c:	b085      	sub	sp, #20
 8002b4e:	0007      	movs	r7, r0
 8002b50:	000c      	movs	r4, r1
 8002b52:	9203      	str	r2, [sp, #12]
 8002b54:	9301      	str	r3, [sp, #4]
 8002b56:	429e      	cmp	r6, r3
 8002b58:	d83c      	bhi.n	8002bd4 <__ssputs_r+0x8c>
 8002b5a:	2390      	movs	r3, #144	; 0x90
 8002b5c:	898a      	ldrh	r2, [r1, #12]
 8002b5e:	00db      	lsls	r3, r3, #3
 8002b60:	421a      	tst	r2, r3
 8002b62:	d034      	beq.n	8002bce <__ssputs_r+0x86>
 8002b64:	6909      	ldr	r1, [r1, #16]
 8002b66:	6823      	ldr	r3, [r4, #0]
 8002b68:	6960      	ldr	r0, [r4, #20]
 8002b6a:	1a5b      	subs	r3, r3, r1
 8002b6c:	9302      	str	r3, [sp, #8]
 8002b6e:	2303      	movs	r3, #3
 8002b70:	4343      	muls	r3, r0
 8002b72:	0fdd      	lsrs	r5, r3, #31
 8002b74:	18ed      	adds	r5, r5, r3
 8002b76:	9b01      	ldr	r3, [sp, #4]
 8002b78:	9802      	ldr	r0, [sp, #8]
 8002b7a:	3301      	adds	r3, #1
 8002b7c:	181b      	adds	r3, r3, r0
 8002b7e:	106d      	asrs	r5, r5, #1
 8002b80:	42ab      	cmp	r3, r5
 8002b82:	d900      	bls.n	8002b86 <__ssputs_r+0x3e>
 8002b84:	001d      	movs	r5, r3
 8002b86:	0553      	lsls	r3, r2, #21
 8002b88:	d532      	bpl.n	8002bf0 <__ssputs_r+0xa8>
 8002b8a:	0029      	movs	r1, r5
 8002b8c:	0038      	movs	r0, r7
 8002b8e:	f000 fb27 	bl	80031e0 <_malloc_r>
 8002b92:	1e06      	subs	r6, r0, #0
 8002b94:	d109      	bne.n	8002baa <__ssputs_r+0x62>
 8002b96:	230c      	movs	r3, #12
 8002b98:	603b      	str	r3, [r7, #0]
 8002b9a:	2340      	movs	r3, #64	; 0x40
 8002b9c:	2001      	movs	r0, #1
 8002b9e:	89a2      	ldrh	r2, [r4, #12]
 8002ba0:	4240      	negs	r0, r0
 8002ba2:	4313      	orrs	r3, r2
 8002ba4:	81a3      	strh	r3, [r4, #12]
 8002ba6:	b005      	add	sp, #20
 8002ba8:	bdf0      	pop	{r4, r5, r6, r7, pc}
 8002baa:	9a02      	ldr	r2, [sp, #8]
 8002bac:	6921      	ldr	r1, [r4, #16]
 8002bae:	f7ff ff99 	bl	8002ae4 <memcpy>
 8002bb2:	89a3      	ldrh	r3, [r4, #12]
 8002bb4:	4a14      	ldr	r2, [pc, #80]	; (8002c08 <__ssputs_r+0xc0>)
 8002bb6:	401a      	ands	r2, r3
 8002bb8:	2380      	movs	r3, #128	; 0x80
 8002bba:	4313      	orrs	r3, r2
 8002bbc:	81a3      	strh	r3, [r4, #12]
 8002bbe:	9b02      	ldr	r3, [sp, #8]
 8002bc0:	6126      	str	r6, [r4, #16]
 8002bc2:	18f6      	adds	r6, r6, r3
 8002bc4:	6026      	str	r6, [r4, #0]
 8002bc6:	6165      	str	r5, [r4, #20]
 8002bc8:	9e01      	ldr	r6, [sp, #4]
 8002bca:	1aed      	subs	r5, r5, r3
 8002bcc:	60a5      	str	r5, [r4, #8]
 8002bce:	9b01      	ldr	r3, [sp, #4]
 8002bd0:	429e      	cmp	r6, r3
 8002bd2:	d900      	bls.n	8002bd6 <__ssputs_r+0x8e>
 8002bd4:	9e01      	ldr	r6, [sp, #4]
 8002bd6:	0032      	movs	r2, r6
 8002bd8:	9903      	ldr	r1, [sp, #12]
 8002bda:	6820      	ldr	r0, [r4, #0]
 8002bdc:	f000 faa3 	bl	8003126 <memmove>
 8002be0:	68a3      	ldr	r3, [r4, #8]
 8002be2:	2000      	movs	r0, #0
 8002be4:	1b9b      	subs	r3, r3, r6
 8002be6:	60a3      	str	r3, [r4, #8]
 8002be8:	6823      	ldr	r3, [r4, #0]
 8002bea:	199e      	adds	r6, r3, r6
 8002bec:	6026      	str	r6, [r4, #0]
 8002bee:	e7da      	b.n	8002ba6 <__ssputs_r+0x5e>
 8002bf0:	002a      	movs	r2, r5
 8002bf2:	0038      	movs	r0, r7
 8002bf4:	f000 fb52 	bl	800329c <_realloc_r>
 8002bf8:	1e06      	subs	r6, r0, #0
 8002bfa:	d1e0      	bne.n	8002bbe <__ssputs_r+0x76>
 8002bfc:	0038      	movs	r0, r7
 8002bfe:	6921      	ldr	r1, [r4, #16]
 8002c00:	f000 faa4 	bl	800314c <_free_r>
 8002c04:	e7c7      	b.n	8002b96 <__ssputs_r+0x4e>
 8002c06:	46c0      	nop			; (mov r8, r8)
 8002c08:	fffffb7f 	.word	0xfffffb7f

08002c0c <_svfiprintf_r>:
 8002c0c:	b5f0      	push	{r4, r5, r6, r7, lr}
 8002c0e:	b0a1      	sub	sp, #132	; 0x84
 8002c10:	9003      	str	r0, [sp, #12]
 8002c12:	001d      	movs	r5, r3
 8002c14:	898b      	ldrh	r3, [r1, #12]
 8002c16:	000f      	movs	r7, r1
 8002c18:	0016      	movs	r6, r2
 8002c1a:	061b      	lsls	r3, r3, #24
 8002c1c:	d511      	bpl.n	8002c42 <_svfiprintf_r+0x36>
 8002c1e:	690b      	ldr	r3, [r1, #16]
 8002c20:	2b00      	cmp	r3, #0
 8002c22:	d10e      	bne.n	8002c42 <_svfiprintf_r+0x36>
 8002c24:	2140      	movs	r1, #64	; 0x40
 8002c26:	f000 fadb 	bl	80031e0 <_malloc_r>
 8002c2a:	6038      	str	r0, [r7, #0]
 8002c2c:	6138      	str	r0, [r7, #16]
 8002c2e:	2800      	cmp	r0, #0
 8002c30:	d105      	bne.n	8002c3e <_svfiprintf_r+0x32>
 8002c32:	230c      	movs	r3, #12
 8002c34:	9a03      	ldr	r2, [sp, #12]
 8002c36:	3801      	subs	r0, #1
 8002c38:	6013      	str	r3, [r2, #0]
 8002c3a:	b021      	add	sp, #132	; 0x84
 8002c3c:	bdf0      	pop	{r4, r5, r6, r7, pc}
 8002c3e:	2340      	movs	r3, #64	; 0x40
 8002c40:	617b      	str	r3, [r7, #20]
 8002c42:	2300      	movs	r3, #0
 8002c44:	ac08      	add	r4, sp, #32
 8002c46:	6163      	str	r3, [r4, #20]
 8002c48:	3320      	adds	r3, #32
 8002c4a:	7663      	strb	r3, [r4, #25]
 8002c4c:	3310      	adds	r3, #16
 8002c4e:	76a3      	strb	r3, [r4, #26]
 8002c50:	9507      	str	r5, [sp, #28]
 8002c52:	0035      	movs	r5, r6
 8002c54:	782b      	ldrb	r3, [r5, #0]
 8002c56:	2b00      	cmp	r3, #0
 8002c58:	d001      	beq.n	8002c5e <_svfiprintf_r+0x52>
 8002c5a:	2b25      	cmp	r3, #37	; 0x25
 8002c5c:	d147      	bne.n	8002cee <_svfiprintf_r+0xe2>
 8002c5e:	1bab      	subs	r3, r5, r6
 8002c60:	9305      	str	r3, [sp, #20]
 8002c62:	42b5      	cmp	r5, r6
 8002c64:	d00c      	beq.n	8002c80 <_svfiprintf_r+0x74>
 8002c66:	0032      	movs	r2, r6
 8002c68:	0039      	movs	r1, r7
 8002c6a:	9803      	ldr	r0, [sp, #12]
 8002c6c:	f7ff ff6c 	bl	8002b48 <__ssputs_r>
 8002c70:	1c43      	adds	r3, r0, #1
 8002c72:	d100      	bne.n	8002c76 <_svfiprintf_r+0x6a>
 8002c74:	e0ae      	b.n	8002dd4 <_svfiprintf_r+0x1c8>
 8002c76:	6962      	ldr	r2, [r4, #20]
 8002c78:	9b05      	ldr	r3, [sp, #20]
 8002c7a:	4694      	mov	ip, r2
 8002c7c:	4463      	add	r3, ip
 8002c7e:	6163      	str	r3, [r4, #20]
 8002c80:	782b      	ldrb	r3, [r5, #0]
 8002c82:	2b00      	cmp	r3, #0
 8002c84:	d100      	bne.n	8002c88 <_svfiprintf_r+0x7c>
 8002c86:	e0a5      	b.n	8002dd4 <_svfiprintf_r+0x1c8>
 8002c88:	2201      	movs	r2, #1
 8002c8a:	2300      	movs	r3, #0
 8002c8c:	4252      	negs	r2, r2
 8002c8e:	6062      	str	r2, [r4, #4]
 8002c90:	a904      	add	r1, sp, #16
 8002c92:	3254      	adds	r2, #84	; 0x54
 8002c94:	1852      	adds	r2, r2, r1
 8002c96:	1c6e      	adds	r6, r5, #1
 8002c98:	6023      	str	r3, [r4, #0]
 8002c9a:	60e3      	str	r3, [r4, #12]
 8002c9c:	60a3      	str	r3, [r4, #8]
 8002c9e:	7013      	strb	r3, [r2, #0]
 8002ca0:	65a3      	str	r3, [r4, #88]	; 0x58
 8002ca2:	2205      	movs	r2, #5
 8002ca4:	7831      	ldrb	r1, [r6, #0]
 8002ca6:	4854      	ldr	r0, [pc, #336]	; (8002df8 <_svfiprintf_r+0x1ec>)
 8002ca8:	f000 fa32 	bl	8003110 <memchr>
 8002cac:	1c75      	adds	r5, r6, #1
 8002cae:	2800      	cmp	r0, #0
 8002cb0:	d11f      	bne.n	8002cf2 <_svfiprintf_r+0xe6>
 8002cb2:	6822      	ldr	r2, [r4, #0]
 8002cb4:	06d3      	lsls	r3, r2, #27
 8002cb6:	d504      	bpl.n	8002cc2 <_svfiprintf_r+0xb6>
 8002cb8:	2353      	movs	r3, #83	; 0x53
 8002cba:	a904      	add	r1, sp, #16
 8002cbc:	185b      	adds	r3, r3, r1
 8002cbe:	2120      	movs	r1, #32
 8002cc0:	7019      	strb	r1, [r3, #0]
 8002cc2:	0713      	lsls	r3, r2, #28
 8002cc4:	d504      	bpl.n	8002cd0 <_svfiprintf_r+0xc4>
 8002cc6:	2353      	movs	r3, #83	; 0x53
 8002cc8:	a904      	add	r1, sp, #16
 8002cca:	185b      	adds	r3, r3, r1
 8002ccc:	212b      	movs	r1, #43	; 0x2b
 8002cce:	7019      	strb	r1, [r3, #0]
 8002cd0:	7833      	ldrb	r3, [r6, #0]
 8002cd2:	2b2a      	cmp	r3, #42	; 0x2a
 8002cd4:	d016      	beq.n	8002d04 <_svfiprintf_r+0xf8>
 8002cd6:	0035      	movs	r5, r6
 8002cd8:	2100      	movs	r1, #0
 8002cda:	200a      	movs	r0, #10
 8002cdc:	68e3      	ldr	r3, [r4, #12]
 8002cde:	782a      	ldrb	r2, [r5, #0]
 8002ce0:	1c6e      	adds	r6, r5, #1
 8002ce2:	3a30      	subs	r2, #48	; 0x30
 8002ce4:	2a09      	cmp	r2, #9
 8002ce6:	d94e      	bls.n	8002d86 <_svfiprintf_r+0x17a>
 8002ce8:	2900      	cmp	r1, #0
 8002cea:	d111      	bne.n	8002d10 <_svfiprintf_r+0x104>
 8002cec:	e017      	b.n	8002d1e <_svfiprintf_r+0x112>
 8002cee:	3501      	adds	r5, #1
 8002cf0:	e7b0      	b.n	8002c54 <_svfiprintf_r+0x48>
 8002cf2:	4b41      	ldr	r3, [pc, #260]	; (8002df8 <_svfiprintf_r+0x1ec>)
 8002cf4:	6822      	ldr	r2, [r4, #0]
 8002cf6:	1ac0      	subs	r0, r0, r3
 8002cf8:	2301      	movs	r3, #1
 8002cfa:	4083      	lsls	r3, r0
 8002cfc:	4313      	orrs	r3, r2
 8002cfe:	002e      	movs	r6, r5
 8002d00:	6023      	str	r3, [r4, #0]
 8002d02:	e7ce      	b.n	8002ca2 <_svfiprintf_r+0x96>
 8002d04:	9b07      	ldr	r3, [sp, #28]
 8002d06:	1d19      	adds	r1, r3, #4
 8002d08:	681b      	ldr	r3, [r3, #0]
 8002d0a:	9107      	str	r1, [sp, #28]
 8002d0c:	2b00      	cmp	r3, #0
 8002d0e:	db01      	blt.n	8002d14 <_svfiprintf_r+0x108>
 8002d10:	930b      	str	r3, [sp, #44]	; 0x2c
 8002d12:	e004      	b.n	8002d1e <_svfiprintf_r+0x112>
 8002d14:	425b      	negs	r3, r3
 8002d16:	60e3      	str	r3, [r4, #12]
 8002d18:	2302      	movs	r3, #2
 8002d1a:	4313      	orrs	r3, r2
 8002d1c:	6023      	str	r3, [r4, #0]
 8002d1e:	782b      	ldrb	r3, [r5, #0]
 8002d20:	2b2e      	cmp	r3, #46	; 0x2e
 8002d22:	d10a      	bne.n	8002d3a <_svfiprintf_r+0x12e>
 8002d24:	786b      	ldrb	r3, [r5, #1]
 8002d26:	2b2a      	cmp	r3, #42	; 0x2a
 8002d28:	d135      	bne.n	8002d96 <_svfiprintf_r+0x18a>
 8002d2a:	9b07      	ldr	r3, [sp, #28]
 8002d2c:	3502      	adds	r5, #2
 8002d2e:	1d1a      	adds	r2, r3, #4
 8002d30:	681b      	ldr	r3, [r3, #0]
 8002d32:	9207      	str	r2, [sp, #28]
 8002d34:	2b00      	cmp	r3, #0
 8002d36:	db2b      	blt.n	8002d90 <_svfiprintf_r+0x184>
 8002d38:	9309      	str	r3, [sp, #36]	; 0x24
 8002d3a:	4e30      	ldr	r6, [pc, #192]	; (8002dfc <_svfiprintf_r+0x1f0>)
 8002d3c:	2203      	movs	r2, #3
 8002d3e:	0030      	movs	r0, r6
 8002d40:	7829      	ldrb	r1, [r5, #0]
 8002d42:	f000 f9e5 	bl	8003110 <memchr>
 8002d46:	2800      	cmp	r0, #0
 8002d48:	d006      	beq.n	8002d58 <_svfiprintf_r+0x14c>
 8002d4a:	2340      	movs	r3, #64	; 0x40
 8002d4c:	1b80      	subs	r0, r0, r6
 8002d4e:	4083      	lsls	r3, r0
 8002d50:	6822      	ldr	r2, [r4, #0]
 8002d52:	3501      	adds	r5, #1
 8002d54:	4313      	orrs	r3, r2
 8002d56:	6023      	str	r3, [r4, #0]
 8002d58:	7829      	ldrb	r1, [r5, #0]
 8002d5a:	2206      	movs	r2, #6
 8002d5c:	4828      	ldr	r0, [pc, #160]	; (8002e00 <_svfiprintf_r+0x1f4>)
 8002d5e:	1c6e      	adds	r6, r5, #1
 8002d60:	7621      	strb	r1, [r4, #24]
 8002d62:	f000 f9d5 	bl	8003110 <memchr>
 8002d66:	2800      	cmp	r0, #0
 8002d68:	d03c      	beq.n	8002de4 <_svfiprintf_r+0x1d8>
 8002d6a:	4b26      	ldr	r3, [pc, #152]	; (8002e04 <_svfiprintf_r+0x1f8>)
 8002d6c:	2b00      	cmp	r3, #0
 8002d6e:	d125      	bne.n	8002dbc <_svfiprintf_r+0x1b0>
 8002d70:	2207      	movs	r2, #7
 8002d72:	9b07      	ldr	r3, [sp, #28]
 8002d74:	3307      	adds	r3, #7
 8002d76:	4393      	bics	r3, r2
 8002d78:	3308      	adds	r3, #8
 8002d7a:	9307      	str	r3, [sp, #28]
 8002d7c:	6963      	ldr	r3, [r4, #20]
 8002d7e:	9a04      	ldr	r2, [sp, #16]
 8002d80:	189b      	adds	r3, r3, r2
 8002d82:	6163      	str	r3, [r4, #20]
 8002d84:	e765      	b.n	8002c52 <_svfiprintf_r+0x46>
 8002d86:	4343      	muls	r3, r0
 8002d88:	0035      	movs	r5, r6
 8002d8a:	2101      	movs	r1, #1
 8002d8c:	189b      	adds	r3, r3, r2
 8002d8e:	e7a6      	b.n	8002cde <_svfiprintf_r+0xd2>
 8002d90:	2301      	movs	r3, #1
 8002d92:	425b      	negs	r3, r3
 8002d94:	e7d0      	b.n	8002d38 <_svfiprintf_r+0x12c>
 8002d96:	2300      	movs	r3, #0
 8002d98:	200a      	movs	r0, #10
 8002d9a:	001a      	movs	r2, r3
 8002d9c:	3501      	adds	r5, #1
 8002d9e:	6063      	str	r3, [r4, #4]
 8002da0:	7829      	ldrb	r1, [r5, #0]
 8002da2:	1c6e      	adds	r6, r5, #1
 8002da4:	3930      	subs	r1, #48	; 0x30
 8002da6:	2909      	cmp	r1, #9
 8002da8:	d903      	bls.n	8002db2 <_svfiprintf_r+0x1a6>
 8002daa:	2b00      	cmp	r3, #0
 8002dac:	d0c5      	beq.n	8002d3a <_svfiprintf_r+0x12e>
 8002dae:	9209      	str	r2, [sp, #36]	; 0x24
 8002db0:	e7c3      	b.n	8002d3a <_svfiprintf_r+0x12e>
 8002db2:	4342      	muls	r2, r0
 8002db4:	0035      	movs	r5, r6
 8002db6:	2301      	movs	r3, #1
 8002db8:	1852      	adds	r2, r2, r1
 8002dba:	e7f1      	b.n	8002da0 <_svfiprintf_r+0x194>
 8002dbc:	ab07      	add	r3, sp, #28
 8002dbe:	9300      	str	r3, [sp, #0]
 8002dc0:	003a      	movs	r2, r7
 8002dc2:	0021      	movs	r1, r4
 8002dc4:	4b10      	ldr	r3, [pc, #64]	; (8002e08 <_svfiprintf_r+0x1fc>)
 8002dc6:	9803      	ldr	r0, [sp, #12]
 8002dc8:	e000      	b.n	8002dcc <_svfiprintf_r+0x1c0>
 8002dca:	bf00      	nop
 8002dcc:	9004      	str	r0, [sp, #16]
 8002dce:	9b04      	ldr	r3, [sp, #16]
 8002dd0:	3301      	adds	r3, #1
 8002dd2:	d1d3      	bne.n	8002d7c <_svfiprintf_r+0x170>
 8002dd4:	89bb      	ldrh	r3, [r7, #12]
 8002dd6:	980d      	ldr	r0, [sp, #52]	; 0x34
 8002dd8:	065b      	lsls	r3, r3, #25
 8002dda:	d400      	bmi.n	8002dde <_svfiprintf_r+0x1d2>
 8002ddc:	e72d      	b.n	8002c3a <_svfiprintf_r+0x2e>
 8002dde:	2001      	movs	r0, #1
 8002de0:	4240      	negs	r0, r0
 8002de2:	e72a      	b.n	8002c3a <_svfiprintf_r+0x2e>
 8002de4:	ab07      	add	r3, sp, #28
 8002de6:	9300      	str	r3, [sp, #0]
 8002de8:	003a      	movs	r2, r7
 8002dea:	0021      	movs	r1, r4
 8002dec:	4b06      	ldr	r3, [pc, #24]	; (8002e08 <_svfiprintf_r+0x1fc>)
 8002dee:	9803      	ldr	r0, [sp, #12]
 8002df0:	f000 f87c 	bl	8002eec <_printf_i>
 8002df4:	e7ea      	b.n	8002dcc <_svfiprintf_r+0x1c0>
 8002df6:	46c0      	nop			; (mov r8, r8)
 8002df8:	08005b5c 	.word	0x08005b5c
 8002dfc:	08005b62 	.word	0x08005b62
 8002e00:	08005b66 	.word	0x08005b66
 8002e04:	00000000 	.word	0x00000000
 8002e08:	08002b49 	.word	0x08002b49

08002e0c <_printf_common>:
 8002e0c:	b5f7      	push	{r0, r1, r2, r4, r5, r6, r7, lr}
 8002e0e:	0015      	movs	r5, r2
 8002e10:	9301      	str	r3, [sp, #4]
 8002e12:	688a      	ldr	r2, [r1, #8]
 8002e14:	690b      	ldr	r3, [r1, #16]
 8002e16:	000c      	movs	r4, r1
 8002e18:	9000      	str	r0, [sp, #0]
 8002e1a:	4293      	cmp	r3, r2
 8002e1c:	da00      	bge.n	8002e20 <_printf_common+0x14>
 8002e1e:	0013      	movs	r3, r2
 8002e20:	0022      	movs	r2, r4
 8002e22:	602b      	str	r3, [r5, #0]
 8002e24:	3243      	adds	r2, #67	; 0x43
 8002e26:	7812      	ldrb	r2, [r2, #0]
 8002e28:	2a00      	cmp	r2, #0
 8002e2a:	d001      	beq.n	8002e30 <_printf_common+0x24>
 8002e2c:	3301      	adds	r3, #1
 8002e2e:	602b      	str	r3, [r5, #0]
 8002e30:	6823      	ldr	r3, [r4, #0]
 8002e32:	069b      	lsls	r3, r3, #26
 8002e34:	d502      	bpl.n	8002e3c <_printf_common+0x30>
 8002e36:	682b      	ldr	r3, [r5, #0]
 8002e38:	3302      	adds	r3, #2
 8002e3a:	602b      	str	r3, [r5, #0]
 8002e3c:	6822      	ldr	r2, [r4, #0]
 8002e3e:	2306      	movs	r3, #6
 8002e40:	0017      	movs	r7, r2
 8002e42:	401f      	ands	r7, r3
 8002e44:	421a      	tst	r2, r3
 8002e46:	d027      	beq.n	8002e98 <_printf_common+0x8c>
 8002e48:	0023      	movs	r3, r4
 8002e4a:	3343      	adds	r3, #67	; 0x43
 8002e4c:	781b      	ldrb	r3, [r3, #0]
 8002e4e:	1e5a      	subs	r2, r3, #1
 8002e50:	4193      	sbcs	r3, r2
 8002e52:	6822      	ldr	r2, [r4, #0]
 8002e54:	0692      	lsls	r2, r2, #26
 8002e56:	d430      	bmi.n	8002eba <_printf_common+0xae>
 8002e58:	0022      	movs	r2, r4
 8002e5a:	9901      	ldr	r1, [sp, #4]
 8002e5c:	9800      	ldr	r0, [sp, #0]
 8002e5e:	9e08      	ldr	r6, [sp, #32]
 8002e60:	3243      	adds	r2, #67	; 0x43
 8002e62:	47b0      	blx	r6
 8002e64:	1c43      	adds	r3, r0, #1
 8002e66:	d025      	beq.n	8002eb4 <_printf_common+0xa8>
 8002e68:	2306      	movs	r3, #6
 8002e6a:	6820      	ldr	r0, [r4, #0]
 8002e6c:	682a      	ldr	r2, [r5, #0]
 8002e6e:	68e1      	ldr	r1, [r4, #12]
 8002e70:	2500      	movs	r5, #0
 8002e72:	4003      	ands	r3, r0
 8002e74:	2b04      	cmp	r3, #4
 8002e76:	d103      	bne.n	8002e80 <_printf_common+0x74>
 8002e78:	1a8d      	subs	r5, r1, r2
 8002e7a:	43eb      	mvns	r3, r5
 8002e7c:	17db      	asrs	r3, r3, #31
 8002e7e:	401d      	ands	r5, r3
 8002e80:	68a3      	ldr	r3, [r4, #8]
 8002e82:	6922      	ldr	r2, [r4, #16]
 8002e84:	4293      	cmp	r3, r2
 8002e86:	dd01      	ble.n	8002e8c <_printf_common+0x80>
 8002e88:	1a9b      	subs	r3, r3, r2
 8002e8a:	18ed      	adds	r5, r5, r3
 8002e8c:	2700      	movs	r7, #0
 8002e8e:	42bd      	cmp	r5, r7
 8002e90:	d120      	bne.n	8002ed4 <_printf_common+0xc8>
 8002e92:	2000      	movs	r0, #0
 8002e94:	e010      	b.n	8002eb8 <_printf_common+0xac>
 8002e96:	3701      	adds	r7, #1
 8002e98:	68e3      	ldr	r3, [r4, #12]
 8002e9a:	682a      	ldr	r2, [r5, #0]
 8002e9c:	1a9b      	subs	r3, r3, r2
 8002e9e:	42bb      	cmp	r3, r7
 8002ea0:	ddd2      	ble.n	8002e48 <_printf_common+0x3c>
 8002ea2:	0022      	movs	r2, r4
 8002ea4:	2301      	movs	r3, #1
 8002ea6:	9901      	ldr	r1, [sp, #4]
 8002ea8:	9800      	ldr	r0, [sp, #0]
 8002eaa:	9e08      	ldr	r6, [sp, #32]
 8002eac:	3219      	adds	r2, #25
 8002eae:	47b0      	blx	r6
 8002eb0:	1c43      	adds	r3, r0, #1
 8002eb2:	d1f0      	bne.n	8002e96 <_printf_common+0x8a>
 8002eb4:	2001      	movs	r0, #1
 8002eb6:	4240      	negs	r0, r0
 8002eb8:	bdfe      	pop	{r1, r2, r3, r4, r5, r6, r7, pc}
 8002eba:	2030      	movs	r0, #48	; 0x30
 8002ebc:	18e1      	adds	r1, r4, r3
 8002ebe:	3143      	adds	r1, #67	; 0x43
 8002ec0:	7008      	strb	r0, [r1, #0]
 8002ec2:	0021      	movs	r1, r4
 8002ec4:	1c5a      	adds	r2, r3, #1
 8002ec6:	3145      	adds	r1, #69	; 0x45
 8002ec8:	7809      	ldrb	r1, [r1, #0]
 8002eca:	18a2      	adds	r2, r4, r2
 8002ecc:	3243      	adds	r2, #67	; 0x43
 8002ece:	3302      	adds	r3, #2
 8002ed0:	7011      	strb	r1, [r2, #0]
 8002ed2:	e7c1      	b.n	8002e58 <_printf_common+0x4c>
 8002ed4:	0022      	movs	r2, r4
 8002ed6:	2301      	movs	r3, #1
 8002ed8:	9901      	ldr	r1, [sp, #4]
 8002eda:	9800      	ldr	r0, [sp, #0]
 8002edc:	9e08      	ldr	r6, [sp, #32]
 8002ede:	321a      	adds	r2, #26
 8002ee0:	47b0      	blx	r6
 8002ee2:	1c43      	adds	r3, r0, #1
 8002ee4:	d0e6      	beq.n	8002eb4 <_printf_common+0xa8>
 8002ee6:	3701      	adds	r7, #1
 8002ee8:	e7d1      	b.n	8002e8e <_printf_common+0x82>
	...

08002eec <_printf_i>:
 8002eec:	b5f0      	push	{r4, r5, r6, r7, lr}
 8002eee:	b08b      	sub	sp, #44	; 0x2c
 8002ef0:	9206      	str	r2, [sp, #24]
 8002ef2:	000a      	movs	r2, r1
 8002ef4:	3243      	adds	r2, #67	; 0x43
 8002ef6:	9307      	str	r3, [sp, #28]
 8002ef8:	9005      	str	r0, [sp, #20]
 8002efa:	9204      	str	r2, [sp, #16]
 8002efc:	7e0a      	ldrb	r2, [r1, #24]
 8002efe:	000c      	movs	r4, r1
 8002f00:	9b10      	ldr	r3, [sp, #64]	; 0x40
 8002f02:	2a78      	cmp	r2, #120	; 0x78
 8002f04:	d807      	bhi.n	8002f16 <_printf_i+0x2a>
 8002f06:	2a62      	cmp	r2, #98	; 0x62
 8002f08:	d809      	bhi.n	8002f1e <_printf_i+0x32>
 8002f0a:	2a00      	cmp	r2, #0
 8002f0c:	d100      	bne.n	8002f10 <_printf_i+0x24>
 8002f0e:	e0c1      	b.n	8003094 <_printf_i+0x1a8>
 8002f10:	2a58      	cmp	r2, #88	; 0x58
 8002f12:	d100      	bne.n	8002f16 <_printf_i+0x2a>
 8002f14:	e08c      	b.n	8003030 <_printf_i+0x144>
 8002f16:	0026      	movs	r6, r4
 8002f18:	3642      	adds	r6, #66	; 0x42
 8002f1a:	7032      	strb	r2, [r6, #0]
 8002f1c:	e022      	b.n	8002f64 <_printf_i+0x78>
 8002f1e:	0010      	movs	r0, r2
 8002f20:	3863      	subs	r0, #99	; 0x63
 8002f22:	2815      	cmp	r0, #21
 8002f24:	d8f7      	bhi.n	8002f16 <_printf_i+0x2a>
 8002f26:	f7fd f8f3 	bl	8000110 <__gnu_thumb1_case_shi>
 8002f2a:	0016      	.short	0x0016
 8002f2c:	fff6001f 	.word	0xfff6001f
 8002f30:	fff6fff6 	.word	0xfff6fff6
 8002f34:	001ffff6 	.word	0x001ffff6
 8002f38:	fff6fff6 	.word	0xfff6fff6
 8002f3c:	fff6fff6 	.word	0xfff6fff6
 8002f40:	003600a8 	.word	0x003600a8
 8002f44:	fff6009a 	.word	0xfff6009a
 8002f48:	00b9fff6 	.word	0x00b9fff6
 8002f4c:	0036fff6 	.word	0x0036fff6
 8002f50:	fff6fff6 	.word	0xfff6fff6
 8002f54:	009e      	.short	0x009e
 8002f56:	0026      	movs	r6, r4
 8002f58:	681a      	ldr	r2, [r3, #0]
 8002f5a:	3642      	adds	r6, #66	; 0x42
 8002f5c:	1d11      	adds	r1, r2, #4
 8002f5e:	6019      	str	r1, [r3, #0]
 8002f60:	6813      	ldr	r3, [r2, #0]
 8002f62:	7033      	strb	r3, [r6, #0]
 8002f64:	2301      	movs	r3, #1
 8002f66:	e0a7      	b.n	80030b8 <_printf_i+0x1cc>
 8002f68:	6808      	ldr	r0, [r1, #0]
 8002f6a:	6819      	ldr	r1, [r3, #0]
 8002f6c:	1d0a      	adds	r2, r1, #4
 8002f6e:	0605      	lsls	r5, r0, #24
 8002f70:	d50b      	bpl.n	8002f8a <_printf_i+0x9e>
 8002f72:	680d      	ldr	r5, [r1, #0]
 8002f74:	601a      	str	r2, [r3, #0]
 8002f76:	2d00      	cmp	r5, #0
 8002f78:	da03      	bge.n	8002f82 <_printf_i+0x96>
 8002f7a:	232d      	movs	r3, #45	; 0x2d
 8002f7c:	9a04      	ldr	r2, [sp, #16]
 8002f7e:	426d      	negs	r5, r5
 8002f80:	7013      	strb	r3, [r2, #0]
 8002f82:	4b61      	ldr	r3, [pc, #388]	; (8003108 <_printf_i+0x21c>)
 8002f84:	270a      	movs	r7, #10
 8002f86:	9303      	str	r3, [sp, #12]
 8002f88:	e01b      	b.n	8002fc2 <_printf_i+0xd6>
 8002f8a:	680d      	ldr	r5, [r1, #0]
 8002f8c:	601a      	str	r2, [r3, #0]
 8002f8e:	0641      	lsls	r1, r0, #25
 8002f90:	d5f1      	bpl.n	8002f76 <_printf_i+0x8a>
 8002f92:	b22d      	sxth	r5, r5
 8002f94:	e7ef      	b.n	8002f76 <_printf_i+0x8a>
 8002f96:	680d      	ldr	r5, [r1, #0]
 8002f98:	6819      	ldr	r1, [r3, #0]
 8002f9a:	1d08      	adds	r0, r1, #4
 8002f9c:	6018      	str	r0, [r3, #0]
 8002f9e:	062e      	lsls	r6, r5, #24
 8002fa0:	d501      	bpl.n	8002fa6 <_printf_i+0xba>
 8002fa2:	680d      	ldr	r5, [r1, #0]
 8002fa4:	e003      	b.n	8002fae <_printf_i+0xc2>
 8002fa6:	066d      	lsls	r5, r5, #25
 8002fa8:	d5fb      	bpl.n	8002fa2 <_printf_i+0xb6>
 8002faa:	680d      	ldr	r5, [r1, #0]
 8002fac:	b2ad      	uxth	r5, r5
 8002fae:	4b56      	ldr	r3, [pc, #344]	; (8003108 <_printf_i+0x21c>)
 8002fb0:	2708      	movs	r7, #8
 8002fb2:	9303      	str	r3, [sp, #12]
 8002fb4:	2a6f      	cmp	r2, #111	; 0x6f
 8002fb6:	d000      	beq.n	8002fba <_printf_i+0xce>
 8002fb8:	3702      	adds	r7, #2
 8002fba:	0023      	movs	r3, r4
 8002fbc:	2200      	movs	r2, #0
 8002fbe:	3343      	adds	r3, #67	; 0x43
 8002fc0:	701a      	strb	r2, [r3, #0]
 8002fc2:	6863      	ldr	r3, [r4, #4]
 8002fc4:	60a3      	str	r3, [r4, #8]
 8002fc6:	2b00      	cmp	r3, #0
 8002fc8:	db03      	blt.n	8002fd2 <_printf_i+0xe6>
 8002fca:	2204      	movs	r2, #4
 8002fcc:	6821      	ldr	r1, [r4, #0]
 8002fce:	4391      	bics	r1, r2
 8002fd0:	6021      	str	r1, [r4, #0]
 8002fd2:	2d00      	cmp	r5, #0
 8002fd4:	d102      	bne.n	8002fdc <_printf_i+0xf0>
 8002fd6:	9e04      	ldr	r6, [sp, #16]
 8002fd8:	2b00      	cmp	r3, #0
 8002fda:	d00c      	beq.n	8002ff6 <_printf_i+0x10a>
 8002fdc:	9e04      	ldr	r6, [sp, #16]
 8002fde:	0028      	movs	r0, r5
 8002fe0:	0039      	movs	r1, r7
 8002fe2:	f7fd f925 	bl	8000230 <__aeabi_uidivmod>
 8002fe6:	9b03      	ldr	r3, [sp, #12]
 8002fe8:	3e01      	subs	r6, #1
 8002fea:	5c5b      	ldrb	r3, [r3, r1]
 8002fec:	7033      	strb	r3, [r6, #0]
 8002fee:	002b      	movs	r3, r5
 8002ff0:	0005      	movs	r5, r0
 8002ff2:	429f      	cmp	r7, r3
 8002ff4:	d9f3      	bls.n	8002fde <_printf_i+0xf2>
 8002ff6:	2f08      	cmp	r7, #8
 8002ff8:	d109      	bne.n	800300e <_printf_i+0x122>
 8002ffa:	6823      	ldr	r3, [r4, #0]
 8002ffc:	07db      	lsls	r3, r3, #31
 8002ffe:	d506      	bpl.n	800300e <_printf_i+0x122>
 8003000:	6863      	ldr	r3, [r4, #4]
 8003002:	6922      	ldr	r2, [r4, #16]
 8003004:	4293      	cmp	r3, r2
 8003006:	dc02      	bgt.n	800300e <_printf_i+0x122>
 8003008:	2330      	movs	r3, #48	; 0x30
 800300a:	3e01      	subs	r6, #1
 800300c:	7033      	strb	r3, [r6, #0]
 800300e:	9b04      	ldr	r3, [sp, #16]
 8003010:	1b9b      	subs	r3, r3, r6
 8003012:	6123      	str	r3, [r4, #16]
 8003014:	9b07      	ldr	r3, [sp, #28]
 8003016:	0021      	movs	r1, r4
 8003018:	9300      	str	r3, [sp, #0]
 800301a:	9805      	ldr	r0, [sp, #20]
 800301c:	9b06      	ldr	r3, [sp, #24]
 800301e:	aa09      	add	r2, sp, #36	; 0x24
 8003020:	f7ff fef4 	bl	8002e0c <_printf_common>
 8003024:	1c43      	adds	r3, r0, #1
 8003026:	d14c      	bne.n	80030c2 <_printf_i+0x1d6>
 8003028:	2001      	movs	r0, #1
 800302a:	4240      	negs	r0, r0
 800302c:	b00b      	add	sp, #44	; 0x2c
 800302e:	bdf0      	pop	{r4, r5, r6, r7, pc}
 8003030:	3145      	adds	r1, #69	; 0x45
 8003032:	700a      	strb	r2, [r1, #0]
 8003034:	4a34      	ldr	r2, [pc, #208]	; (8003108 <_printf_i+0x21c>)
 8003036:	9203      	str	r2, [sp, #12]
 8003038:	681a      	ldr	r2, [r3, #0]
 800303a:	6821      	ldr	r1, [r4, #0]
 800303c:	ca20      	ldmia	r2!, {r5}
 800303e:	601a      	str	r2, [r3, #0]
 8003040:	0608      	lsls	r0, r1, #24
 8003042:	d516      	bpl.n	8003072 <_printf_i+0x186>
 8003044:	07cb      	lsls	r3, r1, #31
 8003046:	d502      	bpl.n	800304e <_printf_i+0x162>
 8003048:	2320      	movs	r3, #32
 800304a:	4319      	orrs	r1, r3
 800304c:	6021      	str	r1, [r4, #0]
 800304e:	2710      	movs	r7, #16
 8003050:	2d00      	cmp	r5, #0
 8003052:	d1b2      	bne.n	8002fba <_printf_i+0xce>
 8003054:	2320      	movs	r3, #32
 8003056:	6822      	ldr	r2, [r4, #0]
 8003058:	439a      	bics	r2, r3
 800305a:	6022      	str	r2, [r4, #0]
 800305c:	e7ad      	b.n	8002fba <_printf_i+0xce>
 800305e:	2220      	movs	r2, #32
 8003060:	6809      	ldr	r1, [r1, #0]
 8003062:	430a      	orrs	r2, r1
 8003064:	6022      	str	r2, [r4, #0]
 8003066:	0022      	movs	r2, r4
 8003068:	2178      	movs	r1, #120	; 0x78
 800306a:	3245      	adds	r2, #69	; 0x45
 800306c:	7011      	strb	r1, [r2, #0]
 800306e:	4a27      	ldr	r2, [pc, #156]	; (800310c <_printf_i+0x220>)
 8003070:	e7e1      	b.n	8003036 <_printf_i+0x14a>
 8003072:	0648      	lsls	r0, r1, #25
 8003074:	d5e6      	bpl.n	8003044 <_printf_i+0x158>
 8003076:	b2ad      	uxth	r5, r5
 8003078:	e7e4      	b.n	8003044 <_printf_i+0x158>
 800307a:	681a      	ldr	r2, [r3, #0]
 800307c:	680d      	ldr	r5, [r1, #0]
 800307e:	1d10      	adds	r0, r2, #4
 8003080:	6949      	ldr	r1, [r1, #20]
 8003082:	6018      	str	r0, [r3, #0]
 8003084:	6813      	ldr	r3, [r2, #0]
 8003086:	062e      	lsls	r6, r5, #24
 8003088:	d501      	bpl.n	800308e <_printf_i+0x1a2>
 800308a:	6019      	str	r1, [r3, #0]
 800308c:	e002      	b.n	8003094 <_printf_i+0x1a8>
 800308e:	066d      	lsls	r5, r5, #25
 8003090:	d5fb      	bpl.n	800308a <_printf_i+0x19e>
 8003092:	8019      	strh	r1, [r3, #0]
 8003094:	2300      	movs	r3, #0
 8003096:	9e04      	ldr	r6, [sp, #16]
 8003098:	6123      	str	r3, [r4, #16]
 800309a:	e7bb      	b.n	8003014 <_printf_i+0x128>
 800309c:	681a      	ldr	r2, [r3, #0]
 800309e:	1d11      	adds	r1, r2, #4
 80030a0:	6019      	str	r1, [r3, #0]
 80030a2:	6816      	ldr	r6, [r2, #0]
 80030a4:	2100      	movs	r1, #0
 80030a6:	0030      	movs	r0, r6
 80030a8:	6862      	ldr	r2, [r4, #4]
 80030aa:	f000 f831 	bl	8003110 <memchr>
 80030ae:	2800      	cmp	r0, #0
 80030b0:	d001      	beq.n	80030b6 <_printf_i+0x1ca>
 80030b2:	1b80      	subs	r0, r0, r6
 80030b4:	6060      	str	r0, [r4, #4]
 80030b6:	6863      	ldr	r3, [r4, #4]
 80030b8:	6123      	str	r3, [r4, #16]
 80030ba:	2300      	movs	r3, #0
 80030bc:	9a04      	ldr	r2, [sp, #16]
 80030be:	7013      	strb	r3, [r2, #0]
 80030c0:	e7a8      	b.n	8003014 <_printf_i+0x128>
 80030c2:	6923      	ldr	r3, [r4, #16]
 80030c4:	0032      	movs	r2, r6
 80030c6:	9906      	ldr	r1, [sp, #24]
 80030c8:	9805      	ldr	r0, [sp, #20]
 80030ca:	9d07      	ldr	r5, [sp, #28]
 80030cc:	47a8      	blx	r5
 80030ce:	1c43      	adds	r3, r0, #1
 80030d0:	d0aa      	beq.n	8003028 <_printf_i+0x13c>
 80030d2:	6823      	ldr	r3, [r4, #0]
 80030d4:	079b      	lsls	r3, r3, #30
 80030d6:	d415      	bmi.n	8003104 <_printf_i+0x218>
 80030d8:	9b09      	ldr	r3, [sp, #36]	; 0x24
 80030da:	68e0      	ldr	r0, [r4, #12]
 80030dc:	4298      	cmp	r0, r3
 80030de:	daa5      	bge.n	800302c <_printf_i+0x140>
 80030e0:	0018      	movs	r0, r3
 80030e2:	e7a3      	b.n	800302c <_printf_i+0x140>
 80030e4:	0022      	movs	r2, r4
 80030e6:	2301      	movs	r3, #1
 80030e8:	9906      	ldr	r1, [sp, #24]
 80030ea:	9805      	ldr	r0, [sp, #20]
 80030ec:	9e07      	ldr	r6, [sp, #28]
 80030ee:	3219      	adds	r2, #25
 80030f0:	47b0      	blx	r6
 80030f2:	1c43      	adds	r3, r0, #1
 80030f4:	d098      	beq.n	8003028 <_printf_i+0x13c>
 80030f6:	3501      	adds	r5, #1
 80030f8:	68e3      	ldr	r3, [r4, #12]
 80030fa:	9a09      	ldr	r2, [sp, #36]	; 0x24
 80030fc:	1a9b      	subs	r3, r3, r2
 80030fe:	42ab      	cmp	r3, r5
 8003100:	dcf0      	bgt.n	80030e4 <_printf_i+0x1f8>
 8003102:	e7e9      	b.n	80030d8 <_printf_i+0x1ec>
 8003104:	2500      	movs	r5, #0
 8003106:	e7f7      	b.n	80030f8 <_printf_i+0x20c>
 8003108:	08005b6d 	.word	0x08005b6d
 800310c:	08005b7e 	.word	0x08005b7e

08003110 <memchr>:
 8003110:	b2c9      	uxtb	r1, r1
 8003112:	1882      	adds	r2, r0, r2
 8003114:	4290      	cmp	r0, r2
 8003116:	d101      	bne.n	800311c <memchr+0xc>
 8003118:	2000      	movs	r0, #0
 800311a:	4770      	bx	lr
 800311c:	7803      	ldrb	r3, [r0, #0]
 800311e:	428b      	cmp	r3, r1
 8003120:	d0fb      	beq.n	800311a <memchr+0xa>
 8003122:	3001      	adds	r0, #1
 8003124:	e7f6      	b.n	8003114 <memchr+0x4>

08003126 <memmove>:
 8003126:	b510      	push	{r4, lr}
 8003128:	4288      	cmp	r0, r1
 800312a:	d902      	bls.n	8003132 <memmove+0xc>
 800312c:	188b      	adds	r3, r1, r2
 800312e:	4298      	cmp	r0, r3
 8003130:	d303      	bcc.n	800313a <memmove+0x14>
 8003132:	2300      	movs	r3, #0
 8003134:	e007      	b.n	8003146 <memmove+0x20>
 8003136:	5c8b      	ldrb	r3, [r1, r2]
 8003138:	5483      	strb	r3, [r0, r2]
 800313a:	3a01      	subs	r2, #1
 800313c:	d2fb      	bcs.n	8003136 <memmove+0x10>
 800313e:	bd10      	pop	{r4, pc}
 8003140:	5ccc      	ldrb	r4, [r1, r3]
 8003142:	54c4      	strb	r4, [r0, r3]
 8003144:	3301      	adds	r3, #1
 8003146:	429a      	cmp	r2, r3
 8003148:	d1fa      	bne.n	8003140 <memmove+0x1a>
 800314a:	e7f8      	b.n	800313e <memmove+0x18>

0800314c <_free_r>:
 800314c:	b570      	push	{r4, r5, r6, lr}
 800314e:	0005      	movs	r5, r0
 8003150:	2900      	cmp	r1, #0
 8003152:	d010      	beq.n	8003176 <_free_r+0x2a>
 8003154:	1f0c      	subs	r4, r1, #4
 8003156:	6823      	ldr	r3, [r4, #0]
 8003158:	2b00      	cmp	r3, #0
 800315a:	da00      	bge.n	800315e <_free_r+0x12>
 800315c:	18e4      	adds	r4, r4, r3
 800315e:	0028      	movs	r0, r5
 8003160:	f000 f8d4 	bl	800330c <__malloc_lock>
 8003164:	4a1d      	ldr	r2, [pc, #116]	; (80031dc <_free_r+0x90>)
 8003166:	6813      	ldr	r3, [r2, #0]
 8003168:	2b00      	cmp	r3, #0
 800316a:	d105      	bne.n	8003178 <_free_r+0x2c>
 800316c:	6063      	str	r3, [r4, #4]
 800316e:	6014      	str	r4, [r2, #0]
 8003170:	0028      	movs	r0, r5
 8003172:	f000 f8d3 	bl	800331c <__malloc_unlock>
 8003176:	bd70      	pop	{r4, r5, r6, pc}
 8003178:	42a3      	cmp	r3, r4
 800317a:	d908      	bls.n	800318e <_free_r+0x42>
 800317c:	6821      	ldr	r1, [r4, #0]
 800317e:	1860      	adds	r0, r4, r1
 8003180:	4283      	cmp	r3, r0
 8003182:	d1f3      	bne.n	800316c <_free_r+0x20>
 8003184:	6818      	ldr	r0, [r3, #0]
 8003186:	685b      	ldr	r3, [r3, #4]
 8003188:	1841      	adds	r1, r0, r1
 800318a:	6021      	str	r1, [r4, #0]
 800318c:	e7ee      	b.n	800316c <_free_r+0x20>
 800318e:	001a      	movs	r2, r3
 8003190:	685b      	ldr	r3, [r3, #4]
 8003192:	2b00      	cmp	r3, #0
 8003194:	d001      	beq.n	800319a <_free_r+0x4e>
 8003196:	42a3      	cmp	r3, r4
 8003198:	d9f9      	bls.n	800318e <_free_r+0x42>
 800319a:	6811      	ldr	r1, [r2, #0]
 800319c:	1850      	adds	r0, r2, r1
 800319e:	42a0      	cmp	r0, r4
 80031a0:	d10b      	bne.n	80031ba <_free_r+0x6e>
 80031a2:	6820      	ldr	r0, [r4, #0]
 80031a4:	1809      	adds	r1, r1, r0
 80031a6:	1850      	adds	r0, r2, r1
 80031a8:	6011      	str	r1, [r2, #0]
 80031aa:	4283      	cmp	r3, r0
 80031ac:	d1e0      	bne.n	8003170 <_free_r+0x24>
 80031ae:	6818      	ldr	r0, [r3, #0]
 80031b0:	685b      	ldr	r3, [r3, #4]
 80031b2:	1841      	adds	r1, r0, r1
 80031b4:	6011      	str	r1, [r2, #0]
 80031b6:	6053      	str	r3, [r2, #4]
 80031b8:	e7da      	b.n	8003170 <_free_r+0x24>
 80031ba:	42a0      	cmp	r0, r4
 80031bc:	d902      	bls.n	80031c4 <_free_r+0x78>
 80031be:	230c      	movs	r3, #12
 80031c0:	602b      	str	r3, [r5, #0]
 80031c2:	e7d5      	b.n	8003170 <_free_r+0x24>
 80031c4:	6821      	ldr	r1, [r4, #0]
 80031c6:	1860      	adds	r0, r4, r1
 80031c8:	4283      	cmp	r3, r0
 80031ca:	d103      	bne.n	80031d4 <_free_r+0x88>
 80031cc:	6818      	ldr	r0, [r3, #0]
 80031ce:	685b      	ldr	r3, [r3, #4]
 80031d0:	1841      	adds	r1, r0, r1
 80031d2:	6021      	str	r1, [r4, #0]
 80031d4:	6063      	str	r3, [r4, #4]
 80031d6:	6054      	str	r4, [r2, #4]
 80031d8:	e7ca      	b.n	8003170 <_free_r+0x24>
 80031da:	46c0      	nop			; (mov r8, r8)
 80031dc:	20000490 	.word	0x20000490

080031e0 <_malloc_r>:
 80031e0:	b5f8      	push	{r3, r4, r5, r6, r7, lr}
 80031e2:	2303      	movs	r3, #3
 80031e4:	1ccd      	adds	r5, r1, #3
 80031e6:	439d      	bics	r5, r3
 80031e8:	3508      	adds	r5, #8
 80031ea:	0006      	movs	r6, r0
 80031ec:	2d0c      	cmp	r5, #12
 80031ee:	d21f      	bcs.n	8003230 <_malloc_r+0x50>
 80031f0:	250c      	movs	r5, #12
 80031f2:	42a9      	cmp	r1, r5
 80031f4:	d81e      	bhi.n	8003234 <_malloc_r+0x54>
 80031f6:	0030      	movs	r0, r6
 80031f8:	f000 f888 	bl	800330c <__malloc_lock>
 80031fc:	4925      	ldr	r1, [pc, #148]	; (8003294 <_malloc_r+0xb4>)
 80031fe:	680a      	ldr	r2, [r1, #0]
 8003200:	0014      	movs	r4, r2
 8003202:	2c00      	cmp	r4, #0
 8003204:	d11a      	bne.n	800323c <_malloc_r+0x5c>
 8003206:	4f24      	ldr	r7, [pc, #144]	; (8003298 <_malloc_r+0xb8>)
 8003208:	683b      	ldr	r3, [r7, #0]
 800320a:	2b00      	cmp	r3, #0
 800320c:	d104      	bne.n	8003218 <_malloc_r+0x38>
 800320e:	0021      	movs	r1, r4
 8003210:	0030      	movs	r0, r6
 8003212:	f000 f869 	bl	80032e8 <_sbrk_r>
 8003216:	6038      	str	r0, [r7, #0]
 8003218:	0029      	movs	r1, r5
 800321a:	0030      	movs	r0, r6
 800321c:	f000 f864 	bl	80032e8 <_sbrk_r>
 8003220:	1c43      	adds	r3, r0, #1
 8003222:	d12b      	bne.n	800327c <_malloc_r+0x9c>
 8003224:	230c      	movs	r3, #12
 8003226:	0030      	movs	r0, r6
 8003228:	6033      	str	r3, [r6, #0]
 800322a:	f000 f877 	bl	800331c <__malloc_unlock>
 800322e:	e003      	b.n	8003238 <_malloc_r+0x58>
 8003230:	2d00      	cmp	r5, #0
 8003232:	dade      	bge.n	80031f2 <_malloc_r+0x12>
 8003234:	230c      	movs	r3, #12
 8003236:	6033      	str	r3, [r6, #0]
 8003238:	2000      	movs	r0, #0
 800323a:	bdf8      	pop	{r3, r4, r5, r6, r7, pc}
 800323c:	6823      	ldr	r3, [r4, #0]
 800323e:	1b5b      	subs	r3, r3, r5
 8003240:	d419      	bmi.n	8003276 <_malloc_r+0x96>
 8003242:	2b0b      	cmp	r3, #11
 8003244:	d903      	bls.n	800324e <_malloc_r+0x6e>
 8003246:	6023      	str	r3, [r4, #0]
 8003248:	18e4      	adds	r4, r4, r3
 800324a:	6025      	str	r5, [r4, #0]
 800324c:	e003      	b.n	8003256 <_malloc_r+0x76>
 800324e:	6863      	ldr	r3, [r4, #4]
 8003250:	42a2      	cmp	r2, r4
 8003252:	d10e      	bne.n	8003272 <_malloc_r+0x92>
 8003254:	600b      	str	r3, [r1, #0]
 8003256:	0030      	movs	r0, r6
 8003258:	f000 f860 	bl	800331c <__malloc_unlock>
 800325c:	0020      	movs	r0, r4
 800325e:	2207      	movs	r2, #7
 8003260:	300b      	adds	r0, #11
 8003262:	1d23      	adds	r3, r4, #4
 8003264:	4390      	bics	r0, r2
 8003266:	1ac2      	subs	r2, r0, r3
 8003268:	4298      	cmp	r0, r3
 800326a:	d0e6      	beq.n	800323a <_malloc_r+0x5a>
 800326c:	1a1b      	subs	r3, r3, r0
 800326e:	50a3      	str	r3, [r4, r2]
 8003270:	e7e3      	b.n	800323a <_malloc_r+0x5a>
 8003272:	6053      	str	r3, [r2, #4]
 8003274:	e7ef      	b.n	8003256 <_malloc_r+0x76>
 8003276:	0022      	movs	r2, r4
 8003278:	6864      	ldr	r4, [r4, #4]
 800327a:	e7c2      	b.n	8003202 <_malloc_r+0x22>
 800327c:	2303      	movs	r3, #3
 800327e:	1cc4      	adds	r4, r0, #3
 8003280:	439c      	bics	r4, r3
 8003282:	42a0      	cmp	r0, r4
 8003284:	d0e1      	beq.n	800324a <_malloc_r+0x6a>
 8003286:	1a21      	subs	r1, r4, r0
 8003288:	0030      	movs	r0, r6
 800328a:	f000 f82d 	bl	80032e8 <_sbrk_r>
 800328e:	1c43      	adds	r3, r0, #1
 8003290:	d1db      	bne.n	800324a <_malloc_r+0x6a>
 8003292:	e7c7      	b.n	8003224 <_malloc_r+0x44>
 8003294:	20000490 	.word	0x20000490
 8003298:	20000494 	.word	0x20000494

0800329c <_realloc_r>:
 800329c:	b5f8      	push	{r3, r4, r5, r6, r7, lr}
 800329e:	0007      	movs	r7, r0
 80032a0:	000d      	movs	r5, r1
 80032a2:	0016      	movs	r6, r2
 80032a4:	2900      	cmp	r1, #0
 80032a6:	d105      	bne.n	80032b4 <_realloc_r+0x18>
 80032a8:	0011      	movs	r1, r2
 80032aa:	f7ff ff99 	bl	80031e0 <_malloc_r>
 80032ae:	0004      	movs	r4, r0
 80032b0:	0020      	movs	r0, r4
 80032b2:	bdf8      	pop	{r3, r4, r5, r6, r7, pc}
 80032b4:	2a00      	cmp	r2, #0
 80032b6:	d103      	bne.n	80032c0 <_realloc_r+0x24>
 80032b8:	f7ff ff48 	bl	800314c <_free_r>
 80032bc:	0034      	movs	r4, r6
 80032be:	e7f7      	b.n	80032b0 <_realloc_r+0x14>
 80032c0:	f000 f834 	bl	800332c <_malloc_usable_size_r>
 80032c4:	002c      	movs	r4, r5
 80032c6:	42b0      	cmp	r0, r6
 80032c8:	d2f2      	bcs.n	80032b0 <_realloc_r+0x14>
 80032ca:	0031      	movs	r1, r6
 80032cc:	0038      	movs	r0, r7
 80032ce:	f7ff ff87 	bl	80031e0 <_malloc_r>
 80032d2:	1e04      	subs	r4, r0, #0
 80032d4:	d0ec      	beq.n	80032b0 <_realloc_r+0x14>
 80032d6:	0029      	movs	r1, r5
 80032d8:	0032      	movs	r2, r6
 80032da:	f7ff fc03 	bl	8002ae4 <memcpy>
 80032de:	0029      	movs	r1, r5
 80032e0:	0038      	movs	r0, r7
 80032e2:	f7ff ff33 	bl	800314c <_free_r>
 80032e6:	e7e3      	b.n	80032b0 <_realloc_r+0x14>

080032e8 <_sbrk_r>:
 80032e8:	2300      	movs	r3, #0
 80032ea:	b570      	push	{r4, r5, r6, lr}
 80032ec:	4d06      	ldr	r5, [pc, #24]	; (8003308 <_sbrk_r+0x20>)
 80032ee:	0004      	movs	r4, r0
 80032f0:	0008      	movs	r0, r1
 80032f2:	602b      	str	r3, [r5, #0]
 80032f4:	f7fe fffe 	bl	80022f4 <_sbrk>
 80032f8:	1c43      	adds	r3, r0, #1
 80032fa:	d103      	bne.n	8003304 <_sbrk_r+0x1c>
 80032fc:	682b      	ldr	r3, [r5, #0]
 80032fe:	2b00      	cmp	r3, #0
 8003300:	d000      	beq.n	8003304 <_sbrk_r+0x1c>
 8003302:	6023      	str	r3, [r4, #0]
 8003304:	bd70      	pop	{r4, r5, r6, pc}
 8003306:	46c0      	nop			; (mov r8, r8)
 8003308:	20000498 	.word	0x20000498

0800330c <__malloc_lock>:
 800330c:	b510      	push	{r4, lr}
 800330e:	4802      	ldr	r0, [pc, #8]	; (8003318 <__malloc_lock+0xc>)
 8003310:	f000 f814 	bl	800333c <__retarget_lock_acquire_recursive>
 8003314:	bd10      	pop	{r4, pc}
 8003316:	46c0      	nop			; (mov r8, r8)
 8003318:	2000049c 	.word	0x2000049c

0800331c <__malloc_unlock>:
 800331c:	b510      	push	{r4, lr}
 800331e:	4802      	ldr	r0, [pc, #8]	; (8003328 <__malloc_unlock+0xc>)
 8003320:	f000 f80d 	bl	800333e <__retarget_lock_release_recursive>
 8003324:	bd10      	pop	{r4, pc}
 8003326:	46c0      	nop			; (mov r8, r8)
 8003328:	2000049c 	.word	0x2000049c

0800332c <_malloc_usable_size_r>:
 800332c:	1f0b      	subs	r3, r1, #4
 800332e:	681b      	ldr	r3, [r3, #0]
 8003330:	1f18      	subs	r0, r3, #4
 8003332:	2b00      	cmp	r3, #0
 8003334:	da01      	bge.n	800333a <_malloc_usable_size_r+0xe>
 8003336:	580b      	ldr	r3, [r1, r0]
 8003338:	18c0      	adds	r0, r0, r3
 800333a:	4770      	bx	lr

0800333c <__retarget_lock_acquire_recursive>:
 800333c:	4770      	bx	lr

0800333e <__retarget_lock_release_recursive>:
 800333e:	4770      	bx	lr

08003340 <_init>:
 8003340:	b5f8      	push	{r3, r4, r5, r6, r7, lr}
 8003342:	46c0      	nop			; (mov r8, r8)
 8003344:	bcf8      	pop	{r3, r4, r5, r6, r7}
 8003346:	bc08      	pop	{r3}
 8003348:	469e      	mov	lr, r3
 800334a:	4770      	bx	lr

0800334c <_fini>:
 800334c:	b5f8      	push	{r3, r4, r5, r6, r7, lr}
 800334e:	46c0      	nop			; (mov r8, r8)
 8003350:	bcf8      	pop	{r3, r4, r5, r6, r7}
 8003352:	bc08      	pop	{r3}
 8003354:	469e      	mov	lr, r3
 8003356:	4770      	bx	lr
